ARM GAS  C:\Users\shynt\AppData\Local\Temp\ccqWQW6S.s 			page 1


   1              		.syntax unified
   2              		.cpu cortex-m3
   3              		.fpu softvfp
   4              		.eabi_attribute 20, 1
   5              		.eabi_attribute 21, 1
   6              		.eabi_attribute 23, 3
   7              		.eabi_attribute 24, 1
   8              		.eabi_attribute 25, 1
   9              		.eabi_attribute 26, 1
  10              		.eabi_attribute 30, 1
  11              		.eabi_attribute 34, 1
  12              		.eabi_attribute 18, 4
  13              		.thumb
  14              		.syntax unified
  15              		.file	"colorSensor.c"
  16              		.text
  17              	.Ltext0:
  18              		.cfi_sections	.debug_frame
  19              		.section	.text.timer_isr,"ax",%progbits
  20              		.align	2
  21              		.global	timer_isr
  22              		.thumb
  23              		.thumb_func
  24              		.type	timer_isr, %function
  25              	timer_isr:
  26              	.LFB64:
  27              		.file 1 "colorSensor.c"
   1:colorSensor.c **** 
   2:colorSensor.c **** /* ========================================
   3:colorSensor.c ****  *
   4:colorSensor.c ****  * Copyright Lucas, 2020
   5:colorSensor.c ****  * All Rights Reserved
   6:colorSensor.c ****  * UNPUBLISHED, LICENSED SOFTWARE.
   7:colorSensor.c ****  *
   8:colorSensor.c ****  * CONFIDENTIAL AND PROPRIETARY INFORMATION
   9:colorSensor.c ****  * WHICH IS THE PROPERTY OF your company.
  10:colorSensor.c ****  *
  11:colorSensor.c ****  * ========================================
  12:colorSensor.c **** */
  13:colorSensor.c **** #include "project.h"
  14:colorSensor.c **** #include <stdio.h>
  15:colorSensor.c **** #include <stdint.h>
  16:colorSensor.c **** #include "colorSensor.h"
  17:colorSensor.c **** 
  18:colorSensor.c **** #define COUNTER_SIZE 10000
  19:colorSensor.c **** uint32_t freq  = 0;
  20:colorSensor.c **** uint freqR_0, freqG_0, freqB_0 = 0;
  21:colorSensor.c **** int dataReady = 0;
  22:colorSensor.c **** int Counter_cycle = 0;
  23:colorSensor.c **** #define STRING_LENGTH 128  
  24:colorSensor.c **** extern char str[] ;
  25:colorSensor.c **** void print(char *str) ;
  26:colorSensor.c **** 
  27:colorSensor.c **** CY_ISR(timer_isr)//Timer i interrupt routine
  28:colorSensor.c **** {
  28              		.loc 1 28 0
  29              		.cfi_startproc
ARM GAS  C:\Users\shynt\AppData\Local\Temp\ccqWQW6S.s 			page 2


  30              		@ args = 0, pretend = 0, frame = 0
  31              		@ frame_needed = 0, uses_anonymous_args = 0
  32 0000 10B5     		push	{r4, lr}
  33              		.cfi_def_cfa_offset 8
  34              		.cfi_offset 4, -8
  35              		.cfi_offset 14, -4
  29:colorSensor.c ****     Counter_Stop();
  36              		.loc 1 29 0
  37 0002 FFF7FEFF 		bl	Counter_Stop
  38              	.LVL0:
  30:colorSensor.c ****     Timer_Stop();
  39              		.loc 1 30 0
  40 0006 FFF7FEFF 		bl	Timer_Stop
  41              	.LVL1:
  31:colorSensor.c ****     freq = Counter_ReadCounter();
  42              		.loc 1 31 0
  43 000a FFF7FEFF 		bl	Counter_ReadCounter
  44              	.LVL2:
  45 000e 074C     		ldr	r4, .L3
  32:colorSensor.c ****     freq += Counter_cycle * COUNTER_SIZE;
  46              		.loc 1 32 0
  47 0010 6368     		ldr	r3, [r4, #4]
  48 0012 42F21072 		movw	r2, #10000
  49 0016 02FB0300 		mla	r0, r2, r3, r0
  50 001a 2060     		str	r0, [r4]
  33:colorSensor.c ****     OE_Write(1);
  51              		.loc 1 33 0
  52 001c 0120     		movs	r0, #1
  53 001e FFF7FEFF 		bl	OE_Write
  54              	.LVL3:
  34:colorSensor.c ****     Timer_INT_ClearPending();
  55              		.loc 1 34 0
  56 0022 FFF7FEFF 		bl	Timer_INT_ClearPending
  57              	.LVL4:
  35:colorSensor.c ****     dataReady = 1;
  58              		.loc 1 35 0
  59 0026 0123     		movs	r3, #1
  60 0028 A360     		str	r3, [r4, #8]
  61 002a 10BD     		pop	{r4, pc}
  62              	.L4:
  63              		.align	2
  64              	.L3:
  65 002c 00000000 		.word	.LANCHOR0
  66              		.cfi_endproc
  67              	.LFE64:
  68              		.size	timer_isr, .-timer_isr
  69              		.section	.text.counter_isr,"ax",%progbits
  70              		.align	2
  71              		.global	counter_isr
  72              		.thumb
  73              		.thumb_func
  74              		.type	counter_isr, %function
  75              	counter_isr:
  76              	.LFB65:
  36:colorSensor.c **** }
  37:colorSensor.c **** 
  38:colorSensor.c **** 
ARM GAS  C:\Users\shynt\AppData\Local\Temp\ccqWQW6S.s 			page 3


  39:colorSensor.c **** CY_ISR(counter_isr)//Counter i interrupt routine
  40:colorSensor.c **** {
  77              		.loc 1 40 0
  78              		.cfi_startproc
  79              		@ args = 0, pretend = 0, frame = 0
  80              		@ frame_needed = 0, uses_anonymous_args = 0
  81 0000 08B5     		push	{r3, lr}
  82              		.cfi_def_cfa_offset 8
  83              		.cfi_offset 3, -8
  84              		.cfi_offset 14, -4
  41:colorSensor.c ****     Counter_INT_ClearPending();
  85              		.loc 1 41 0
  86 0002 FFF7FEFF 		bl	Counter_INT_ClearPending
  87              	.LVL5:
  42:colorSensor.c ****     Counter_cycle++;
  88              		.loc 1 42 0
  89 0006 024A     		ldr	r2, .L7
  90 0008 5368     		ldr	r3, [r2, #4]
  91 000a 0133     		adds	r3, r3, #1
  92 000c 5360     		str	r3, [r2, #4]
  93 000e 08BD     		pop	{r3, pc}
  94              	.L8:
  95              		.align	2
  96              	.L7:
  97 0010 00000000 		.word	.LANCHOR0
  98              		.cfi_endproc
  99              	.LFE65:
 100              		.size	counter_isr, .-counter_isr
 101              		.section	.text.init_start,"ax",%progbits
 102              		.align	2
 103              		.global	init_start
 104              		.thumb
 105              		.thumb_func
 106              		.type	init_start, %function
 107              	init_start:
 108              	.LFB66:
  43:colorSensor.c **** }
  44:colorSensor.c **** 
  45:colorSensor.c **** void init_start(void)//Starter de indbyggede funktioner fra topdesign: UART, Timer, Counter
  46:colorSensor.c **** {
 109              		.loc 1 46 0
 110              		.cfi_startproc
 111              		@ args = 0, pretend = 0, frame = 0
 112              		@ frame_needed = 0, uses_anonymous_args = 0
 113 0000 08B5     		push	{r3, lr}
 114              		.cfi_def_cfa_offset 8
 115              		.cfi_offset 3, -8
 116              		.cfi_offset 14, -4
  47:colorSensor.c ****     CyGlobalIntEnable;
 117              		.loc 1 47 0
 118              		.syntax unified
 119              	@ 47 "colorSensor.c" 1
 120 0002 62B6     		CPSIE   i
 121              	@ 0 "" 2
  48:colorSensor.c ****     UART_1_Start();
 122              		.loc 1 48 0
 123              		.thumb
ARM GAS  C:\Users\shynt\AppData\Local\Temp\ccqWQW6S.s 			page 4


 124              		.syntax unified
 125 0004 FFF7FEFF 		bl	UART_1_Start
 126              	.LVL6:
  49:colorSensor.c ****     Timer_INT_StartEx(timer_isr);
 127              		.loc 1 49 0
 128 0008 0348     		ldr	r0, .L11
 129 000a FFF7FEFF 		bl	Timer_INT_StartEx
 130              	.LVL7:
  50:colorSensor.c ****     Counter_INT_StartEx(counter_isr);
 131              		.loc 1 50 0
 132 000e 0348     		ldr	r0, .L11+4
 133 0010 FFF7FEFF 		bl	Counter_INT_StartEx
 134              	.LVL8:
 135 0014 08BD     		pop	{r3, pc}
 136              	.L12:
 137 0016 00BF     		.align	2
 138              	.L11:
 139 0018 00000000 		.word	timer_isr
 140 001c 00000000 		.word	counter_isr
 141              		.cfi_endproc
 142              	.LFE66:
 143              		.size	init_start, .-init_start
 144              		.section	.text.read_color,"ax",%progbits
 145              		.align	2
 146              		.global	read_color
 147              		.thumb
 148              		.thumb_func
 149              		.type	read_color, %function
 150              	read_color:
 151              	.LFB67:
  51:colorSensor.c **** }
  52:colorSensor.c **** 
  53:colorSensor.c **** void read_color(void)//Omdanner inputs til frekvens vha. counter og timeren
  54:colorSensor.c **** {
 152              		.loc 1 54 0
 153              		.cfi_startproc
 154              		@ args = 0, pretend = 0, frame = 0
 155              		@ frame_needed = 0, uses_anonymous_args = 0
 156 0000 08B5     		push	{r3, lr}
 157              		.cfi_def_cfa_offset 8
 158              		.cfi_offset 3, -8
 159              		.cfi_offset 14, -4
  55:colorSensor.c ****     OE_Write(0);
 160              		.loc 1 55 0
 161 0002 0020     		movs	r0, #0
 162 0004 FFF7FEFF 		bl	OE_Write
 163              	.LVL9:
  56:colorSensor.c ****     Control_Reg_Write(1);
 164              		.loc 1 56 0
 165 0008 0120     		movs	r0, #1
 166 000a FFF7FEFF 		bl	Control_Reg_Write
 167              	.LVL10:
  57:colorSensor.c ****     CyDelay(1);
 168              		.loc 1 57 0
 169 000e 0120     		movs	r0, #1
 170 0010 FFF7FEFF 		bl	CyDelay
 171              	.LVL11:
ARM GAS  C:\Users\shynt\AppData\Local\Temp\ccqWQW6S.s 			page 5


  58:colorSensor.c ****     Control_Reg_Write(0);
 172              		.loc 1 58 0
 173 0014 0020     		movs	r0, #0
 174 0016 FFF7FEFF 		bl	Control_Reg_Write
 175              	.LVL12:
  59:colorSensor.c ****     dataReady = 0;
 176              		.loc 1 59 0
 177 001a 074B     		ldr	r3, .L15
 178 001c 0022     		movs	r2, #0
 179 001e 9A60     		str	r2, [r3, #8]
  60:colorSensor.c ****     Counter_cycle = 0;
 180              		.loc 1 60 0
 181 0020 5A60     		str	r2, [r3, #4]
  61:colorSensor.c ****     Counter_Start();
 182              		.loc 1 61 0
 183 0022 FFF7FEFF 		bl	Counter_Start
 184              	.LVL13:
  62:colorSensor.c ****     Timer_INT_StartEx(timer_isr);
 185              		.loc 1 62 0
 186 0026 0548     		ldr	r0, .L15+4
 187 0028 FFF7FEFF 		bl	Timer_INT_StartEx
 188              	.LVL14:
  63:colorSensor.c ****     Counter_INT_StartEx(counter_isr);
 189              		.loc 1 63 0
 190 002c 0448     		ldr	r0, .L15+8
 191 002e FFF7FEFF 		bl	Counter_INT_StartEx
 192              	.LVL15:
  64:colorSensor.c ****     
  65:colorSensor.c ****     Timer_Start();
 193              		.loc 1 65 0
 194 0032 FFF7FEFF 		bl	Timer_Start
 195              	.LVL16:
 196 0036 08BD     		pop	{r3, pc}
 197              	.L16:
 198              		.align	2
 199              	.L15:
 200 0038 00000000 		.word	.LANCHOR0
 201 003c 00000000 		.word	timer_isr
 202 0040 00000000 		.word	counter_isr
 203              		.cfi_endproc
 204              	.LFE67:
 205              		.size	read_color, .-read_color
 206              		.section	.text.get_freq,"ax",%progbits
 207              		.align	2
 208              		.global	get_freq
 209              		.thumb
 210              		.thumb_func
 211              		.type	get_freq, %function
 212              	get_freq:
 213              	.LFB68:
  66:colorSensor.c **** }
  67:colorSensor.c **** 
  68:colorSensor.c **** int get_freq(char color)//Modtager input på baggrund af indstillinger for farvefilter samt scaling
  69:colorSensor.c **** {
 214              		.loc 1 69 0
 215              		.cfi_startproc
 216              		@ args = 0, pretend = 0, frame = 0
ARM GAS  C:\Users\shynt\AppData\Local\Temp\ccqWQW6S.s 			page 6


 217              		@ frame_needed = 0, uses_anonymous_args = 0
 218              	.LVL17:
 219 0000 10B5     		push	{r4, lr}
 220              		.cfi_def_cfa_offset 8
 221              		.cfi_offset 4, -8
 222              		.cfi_offset 14, -4
 223 0002 0446     		mov	r4, r0
  70:colorSensor.c ****     //scaling 2%
  71:colorSensor.c ****     S0_Write(0);
 224              		.loc 1 71 0
 225 0004 0020     		movs	r0, #0
 226              	.LVL18:
 227 0006 FFF7FEFF 		bl	S0_Write
 228              	.LVL19:
  72:colorSensor.c ****     S1_Write(1);
 229              		.loc 1 72 0
 230 000a 0120     		movs	r0, #1
 231 000c FFF7FEFF 		bl	S1_Write
 232              	.LVL20:
  73:colorSensor.c ****     
  74:colorSensor.c ****    if(color=='r')//Rød farve-filter tilføjes og frekvensen registeres
 233              		.loc 1 74 0
 234 0010 722C     		cmp	r4, #114
 235 0012 08D1     		bne	.L18
  75:colorSensor.c ****     {   
  76:colorSensor.c ****         S2_Write(0);
 236              		.loc 1 76 0
 237 0014 0020     		movs	r0, #0
 238 0016 FFF7FEFF 		bl	S2_Write
 239              	.LVL21:
  77:colorSensor.c ****         S3_Write(0);
 240              		.loc 1 77 0
 241 001a 0020     		movs	r0, #0
 242 001c FFF7FEFF 		bl	S3_Write
 243              	.LVL22:
  78:colorSensor.c ****         read_color();
 244              		.loc 1 78 0
 245 0020 FFF7FEFF 		bl	read_color
 246              	.LVL23:
 247 0024 1FE0     		b	.L22
 248              	.L18:
  79:colorSensor.c ****     }
  80:colorSensor.c ****     
  81:colorSensor.c ****     else if(color=='g')//Grøn farve-filter tilføjes og frekvensen registeres
 249              		.loc 1 81 0
 250 0026 672C     		cmp	r4, #103
 251 0028 08D1     		bne	.L20
  82:colorSensor.c ****     { 
  83:colorSensor.c ****         S2_Write(1);
 252              		.loc 1 83 0
 253 002a 0120     		movs	r0, #1
 254 002c FFF7FEFF 		bl	S2_Write
 255              	.LVL24:
  84:colorSensor.c ****         S3_Write(1);
 256              		.loc 1 84 0
 257 0030 0120     		movs	r0, #1
 258 0032 FFF7FEFF 		bl	S3_Write
ARM GAS  C:\Users\shynt\AppData\Local\Temp\ccqWQW6S.s 			page 7


 259              	.LVL25:
  85:colorSensor.c ****         read_color();
 260              		.loc 1 85 0
 261 0036 FFF7FEFF 		bl	read_color
 262              	.LVL26:
 263 003a 14E0     		b	.L22
 264              	.L20:
  86:colorSensor.c ****     }
  87:colorSensor.c ****     
  88:colorSensor.c ****     else if(color=='b')//Blå farve-filter tilføjes og frekvensen registeres
 265              		.loc 1 88 0
 266 003c 622C     		cmp	r4, #98
 267 003e 08D1     		bne	.L21
  89:colorSensor.c ****     {
  90:colorSensor.c ****         S2_Write(0);
 268              		.loc 1 90 0
 269 0040 0020     		movs	r0, #0
 270 0042 FFF7FEFF 		bl	S2_Write
 271              	.LVL27:
  91:colorSensor.c ****         S3_Write(1);
 272              		.loc 1 91 0
 273 0046 0120     		movs	r0, #1
 274 0048 FFF7FEFF 		bl	S3_Write
 275              	.LVL28:
  92:colorSensor.c ****         read_color();
 276              		.loc 1 92 0
 277 004c FFF7FEFF 		bl	read_color
 278              	.LVL29:
 279 0050 09E0     		b	.L22
 280              	.L21:
  93:colorSensor.c ****     }
  94:colorSensor.c ****     else if(color=='c')//'Clear' farve-filter tilføjes og frekvensen registeres
 281              		.loc 1 94 0
 282 0052 632C     		cmp	r4, #99
 283 0054 07D1     		bne	.L22
  95:colorSensor.c ****     {
  96:colorSensor.c ****         S2_Write(1);
 284              		.loc 1 96 0
 285 0056 0120     		movs	r0, #1
 286 0058 FFF7FEFF 		bl	S2_Write
 287              	.LVL30:
  97:colorSensor.c ****         S3_Write(0);
 288              		.loc 1 97 0
 289 005c 0020     		movs	r0, #0
 290 005e FFF7FEFF 		bl	S3_Write
 291              	.LVL31:
  98:colorSensor.c ****         read_color();
 292              		.loc 1 98 0
 293 0062 FFF7FEFF 		bl	read_color
 294              	.LVL32:
 295              	.L22:
  99:colorSensor.c ****     }
 100:colorSensor.c ****     
 101:colorSensor.c ****    
 102:colorSensor.c ****     
 103:colorSensor.c ****     while(!dataReady)
 296              		.loc 1 103 0 discriminator 1
ARM GAS  C:\Users\shynt\AppData\Local\Temp\ccqWQW6S.s 			page 8


 297 0066 034B     		ldr	r3, .L24
 298 0068 9B68     		ldr	r3, [r3, #8]
 299 006a 002B     		cmp	r3, #0
 300 006c FBD0     		beq	.L22
 104:colorSensor.c ****     {
 105:colorSensor.c ****     ;
 106:colorSensor.c ****     }
 107:colorSensor.c ****     return freq;
 108:colorSensor.c ****     
 109:colorSensor.c ****  
 110:colorSensor.c **** 
 111:colorSensor.c **** }
 301              		.loc 1 111 0
 302 006e 014B     		ldr	r3, .L24
 303 0070 1868     		ldr	r0, [r3]
 304 0072 10BD     		pop	{r4, pc}
 305              	.L25:
 306              		.align	2
 307              	.L24:
 308 0074 00000000 		.word	.LANCHOR0
 309              		.cfi_endproc
 310              	.LFE68:
 311              		.size	get_freq, .-get_freq
 312              		.section	.text.print,"ax",%progbits
 313              		.align	2
 314              		.global	print
 315              		.thumb
 316              		.thumb_func
 317              		.type	print, %function
 318              	print:
 319              	.LFB69:
 112:colorSensor.c **** 
 113:colorSensor.c **** char str[STRING_LENGTH+1] ; /* print buff */
 114:colorSensor.c **** 
 115:colorSensor.c **** void print(char *str)
 116:colorSensor.c **** {
 320              		.loc 1 116 0
 321              		.cfi_startproc
 322              		@ args = 0, pretend = 0, frame = 0
 323              		@ frame_needed = 0, uses_anonymous_args = 0
 324              	.LVL33:
 325 0000 08B5     		push	{r3, lr}
 326              		.cfi_def_cfa_offset 8
 327              		.cfi_offset 3, -8
 328              		.cfi_offset 14, -4
 117:colorSensor.c ****     UART_1_PutString(str) ;
 329              		.loc 1 117 0
 330 0002 FFF7FEFF 		bl	UART_1_PutString
 331              	.LVL34:
 332 0006 08BD     		pop	{r3, pc}
 333              		.cfi_endproc
 334              	.LFE69:
 335              		.size	print, .-print
 336              		.section	.text.standardColor,"ax",%progbits
 337              		.align	2
 338              		.global	standardColor
 339              		.thumb
ARM GAS  C:\Users\shynt\AppData\Local\Temp\ccqWQW6S.s 			page 9


 340              		.thumb_func
 341              		.type	standardColor, %function
 342              	standardColor:
 343              	.LFB70:
 118:colorSensor.c **** }
 119:colorSensor.c **** 
 120:colorSensor.c **** int standardColor()
 121:colorSensor.c **** {
 344              		.loc 1 121 0
 345              		.cfi_startproc
 346              		@ args = 0, pretend = 0, frame = 0
 347              		@ frame_needed = 0, uses_anonymous_args = 0
 348 0000 08B5     		push	{r3, lr}
 349              		.cfi_def_cfa_offset 8
 350              		.cfi_offset 3, -8
 351              		.cfi_offset 14, -4
 122:colorSensor.c **** 
 123:colorSensor.c ****     
 124:colorSensor.c ****     init_start();
 352              		.loc 1 124 0
 353 0002 FFF7FEFF 		bl	init_start
 354              	.LVL35:
 125:colorSensor.c ****     read_color();
 355              		.loc 1 125 0
 356 0006 FFF7FEFF 		bl	read_color
 357              	.LVL36:
 126:colorSensor.c **** 
 127:colorSensor.c ****     freqR_0 = get_freq('r');
 358              		.loc 1 127 0
 359 000a 7220     		movs	r0, #114
 360 000c FFF7FEFF 		bl	get_freq
 361              	.LVL37:
 362 0010 064B     		ldr	r3, .L30
 363 0012 1860     		str	r0, [r3]
 128:colorSensor.c ****     freqG_0 = get_freq('g');
 364              		.loc 1 128 0
 365 0014 6720     		movs	r0, #103
 366 0016 FFF7FEFF 		bl	get_freq
 367              	.LVL38:
 368 001a 054B     		ldr	r3, .L30+4
 369 001c 1860     		str	r0, [r3]
 129:colorSensor.c ****     freqB_0 = get_freq('b');
 370              		.loc 1 129 0
 371 001e 6220     		movs	r0, #98
 372 0020 FFF7FEFF 		bl	get_freq
 373              	.LVL39:
 374 0024 034B     		ldr	r3, .L30+8
 375 0026 D860     		str	r0, [r3, #12]
 130:colorSensor.c ****     
 131:colorSensor.c ****   return 0;  
 132:colorSensor.c **** }
 376              		.loc 1 132 0
 377 0028 0020     		movs	r0, #0
 378 002a 08BD     		pop	{r3, pc}
 379              	.L31:
 380              		.align	2
 381              	.L30:
ARM GAS  C:\Users\shynt\AppData\Local\Temp\ccqWQW6S.s 			page 10


 382 002c 00000000 		.word	freqR_0
 383 0030 00000000 		.word	freqG_0
 384 0034 00000000 		.word	.LANCHOR0
 385              		.cfi_endproc
 386              	.LFE70:
 387              		.size	standardColor, .-standardColor
 388              		.global	__aeabi_ui2d
 389              		.global	__aeabi_dmul
 390              		.global	__aeabi_dcmpgt
 391              		.global	__aeabi_dadd
 392              		.section	.text.getColor,"ax",%progbits
 393              		.align	2
 394              		.global	getColor
 395              		.thumb
 396              		.thumb_func
 397              		.type	getColor, %function
 398              	getColor:
 399              	.LFB71:
 133:colorSensor.c **** 
 134:colorSensor.c **** int getColor()
 135:colorSensor.c **** {
 400              		.loc 1 135 0
 401              		.cfi_startproc
 402              		@ args = 0, pretend = 0, frame = 8
 403              		@ frame_needed = 0, uses_anonymous_args = 0
 404 0000 2DE9F04F 		push	{r4, r5, r6, r7, r8, r9, r10, fp, lr}
 405              		.cfi_def_cfa_offset 36
 406              		.cfi_offset 4, -36
 407              		.cfi_offset 5, -32
 408              		.cfi_offset 6, -28
 409              		.cfi_offset 7, -24
 410              		.cfi_offset 8, -20
 411              		.cfi_offset 9, -16
 412              		.cfi_offset 10, -12
 413              		.cfi_offset 11, -8
 414              		.cfi_offset 14, -4
 415 0004 83B0     		sub	sp, sp, #12
 416              		.cfi_def_cfa_offset 48
 417              	.LVL40:
 136:colorSensor.c **** uint freqR, freqG, freqB = 0;
 137:colorSensor.c **** uint countR = 0;
 138:colorSensor.c **** uint countG = 0;
 139:colorSensor.c **** uint countB = 0;
 140:colorSensor.c **** uint countU = 0;
 141:colorSensor.c **** 
 142:colorSensor.c ****     
 143:colorSensor.c ****     init_start();
 418              		.loc 1 143 0
 419 0006 FFF7FEFF 		bl	init_start
 420              	.LVL41:
 144:colorSensor.c ****     read_color();
 421              		.loc 1 144 0
 422 000a FFF7FEFF 		bl	read_color
 423              	.LVL42:
 139:colorSensor.c **** uint countU = 0;
 424              		.loc 1 139 0
 425 000e 4FF00009 		mov	r9, #0
ARM GAS  C:\Users\shynt\AppData\Local\Temp\ccqWQW6S.s 			page 11


 138:colorSensor.c **** uint countB = 0;
 426              		.loc 1 138 0
 427 0012 CA46     		mov	r10, r9
 137:colorSensor.c **** uint countG = 0;
 428              		.loc 1 137 0
 429 0014 CB46     		mov	fp, r9
 430              	.LVL43:
 431              	.L33:
 145:colorSensor.c ****     
 146:colorSensor.c ****  //   freqR_0 = get_freq('r');
 147:colorSensor.c ****  //   freqG_0 = get_freq('g');
 148:colorSensor.c ****  //   freqB_0 = get_freq('b');  
 149:colorSensor.c ****         for(;;)
 150:colorSensor.c ****         {
 151:colorSensor.c ****             
 152:colorSensor.c ****             freqR = get_freq('r');
 432              		.loc 1 152 0
 433 0016 7220     		movs	r0, #114
 434 0018 FFF7FEFF 		bl	get_freq
 435              	.LVL44:
 436 001c 8046     		mov	r8, r0
 437              	.LVL45:
 153:colorSensor.c ****             freqG = get_freq('g');
 438              		.loc 1 153 0
 439 001e 6720     		movs	r0, #103
 440              	.LVL46:
 441 0020 FFF7FEFF 		bl	get_freq
 442              	.LVL47:
 443 0024 0446     		mov	r4, r0
 444              	.LVL48:
 154:colorSensor.c ****             freqB = get_freq('b');
 445              		.loc 1 154 0
 446 0026 6220     		movs	r0, #98
 447              	.LVL49:
 448 0028 FFF7FEFF 		bl	get_freq
 449              	.LVL50:
 450 002c 0546     		mov	r5, r0
 451              	.LVL51:
 155:colorSensor.c ****            
 156:colorSensor.c ****           
 157:colorSensor.c ****             //Nedenstående to sætninger bruges til at se frekvensen på farverne
 158:colorSensor.c ****           // sprintf(str,"Red freq: %u Hz, Green freq: %u, Blue freq: %u, R0: %u, G0: %u, B0: %u \n
 159:colorSensor.c ****            //print(str);
 160:colorSensor.c ****         
 161:colorSensor.c ****         
 162:colorSensor.c ****     
 163:colorSensor.c ****             //Nedenstående er koden der skal bruges
 164:colorSensor.c ****             
 165:colorSensor.c ****         
 166:colorSensor.c ****             
 167:colorSensor.c ****              if(freqR>freqR_0*1.1)
 452              		.loc 1 167 0
 453 002e 4046     		mov	r0, r8
 454              	.LVL52:
 455 0030 FFF7FEFF 		bl	__aeabi_ui2d
 456              	.LVL53:
 457 0034 0646     		mov	r6, r0
ARM GAS  C:\Users\shynt\AppData\Local\Temp\ccqWQW6S.s 			page 12


 458 0036 0F46     		mov	r7, r1
 459 0038 374B     		ldr	r3, .L53+16
 460 003a 1868     		ldr	r0, [r3]
 461 003c FFF7FEFF 		bl	__aeabi_ui2d
 462              	.LVL54:
 463 0040 31A3     		adr	r3, .L53
 464 0042 D3E90023 		ldrd	r2, [r3]
 465 0046 FFF7FEFF 		bl	__aeabi_dmul
 466              	.LVL55:
 467 004a 0246     		mov	r2, r0
 468 004c 0B46     		mov	r3, r1
 469 004e 3046     		mov	r0, r6
 470 0050 3946     		mov	r1, r7
 471 0052 FFF7FEFF 		bl	__aeabi_dcmpgt
 472              	.LVL56:
 473 0056 48B1     		cbz	r0, .L49
 168:colorSensor.c ****                 {
 169:colorSensor.c ****                     if(freqR>freqG&&freqR>freqB)
 474              		.loc 1 169 0
 475 0058 A045     		cmp	r8, r4
 476 005a DCD9     		bls	.L33
 477              		.loc 1 169 0 is_stmt 0 discriminator 1
 478 005c A845     		cmp	r8, r5
 479 005e DAD9     		bls	.L33
 170:colorSensor.c ****                     {
 171:colorSensor.c ****                         countR ++;
 480              		.loc 1 171 0 is_stmt 1
 481 0060 0BF1010B 		add	fp, fp, #1
 482              	.LVL57:
 172:colorSensor.c **** 
 173:colorSensor.c ****                         if(countR==2)
 483              		.loc 1 173 0
 484 0064 BBF1020F 		cmp	fp, #2
 485 0068 D5D1     		bne	.L33
 486 006a 45E0     		b	.L42
 487              	.L49:
 174:colorSensor.c ****                         {
 175:colorSensor.c ****                             //Indsæt 'driveForward funktion'
 176:colorSensor.c ****                         //sprintf(str,"Red color detected\n\r");
 177:colorSensor.c ****                         //print(str);
 178:colorSensor.c ****                         countR = 0;    
 179:colorSensor.c ****                         return 1;
 180:colorSensor.c ****                         }
 181:colorSensor.c ****                         
 182:colorSensor.c ****                     }
 183:colorSensor.c ****                    
 184:colorSensor.c ****                     else
 185:colorSensor.c ****                     {
 186:colorSensor.c ****                         //Indsæt 'driveLeft funktion'
 187:colorSensor.c ****                         //sprintf(str,"Unknown color in red\n\r");
 188:colorSensor.c ****                         //print(str);
 189:colorSensor.c ****                         //return 0;
 190:colorSensor.c ****                     }    
 191:colorSensor.c ****                 }
 192:colorSensor.c **** 
 193:colorSensor.c ****             else if (freqG>freqG_0+1.1)
 488              		.loc 1 193 0
ARM GAS  C:\Users\shynt\AppData\Local\Temp\ccqWQW6S.s 			page 13


 489 006c 2046     		mov	r0, r4
 490 006e FFF7FEFF 		bl	__aeabi_ui2d
 491              	.LVL58:
 492 0072 0646     		mov	r6, r0
 493 0074 0F46     		mov	r7, r1
 494 0076 294B     		ldr	r3, .L53+20
 495 0078 1868     		ldr	r0, [r3]
 496 007a FFF7FEFF 		bl	__aeabi_ui2d
 497              	.LVL59:
 498 007e 22A3     		adr	r3, .L53
 499 0080 D3E90023 		ldrd	r2, [r3]
 500 0084 FFF7FEFF 		bl	__aeabi_dadd
 501              	.LVL60:
 502 0088 0246     		mov	r2, r0
 503 008a 0B46     		mov	r3, r1
 504 008c 3046     		mov	r0, r6
 505 008e 3946     		mov	r1, r7
 506 0090 FFF7FEFF 		bl	__aeabi_dcmpgt
 507              	.LVL61:
 508 0094 90B3     		cbz	r0, .L50
 194:colorSensor.c ****             {    
 195:colorSensor.c ****                 if (freqG>freqB*0.9)
 509              		.loc 1 195 0
 510 0096 2846     		mov	r0, r5
 511 0098 FFF7FEFF 		bl	__aeabi_ui2d
 512              	.LVL62:
 513 009c CDE90001 		strd	r0, [sp]
 514 00a0 1BA3     		adr	r3, .L53+8
 515 00a2 D3E90023 		ldrd	r2, [r3]
 516 00a6 FFF7FEFF 		bl	__aeabi_dmul
 517              	.LVL63:
 518 00aa 0246     		mov	r2, r0
 519 00ac 0B46     		mov	r3, r1
 520 00ae 3046     		mov	r0, r6
 521 00b0 3946     		mov	r1, r7
 522 00b2 FFF7FEFF 		bl	__aeabi_dcmpgt
 523              	.LVL64:
 524 00b6 28B1     		cbz	r0, .L51
 196:colorSensor.c ****                 {
 197:colorSensor.c ****                         countG ++;
 525              		.loc 1 197 0
 526 00b8 0AF1010A 		add	r10, r10, #1
 527              	.LVL65:
 198:colorSensor.c ****                         if(countG==2)
 528              		.loc 1 198 0
 529 00bc BAF1020F 		cmp	r10, #2
 530 00c0 A9D1     		bne	.L33
 531 00c2 1DE0     		b	.L44
 532              	.L51:
 199:colorSensor.c ****                         {
 200:colorSensor.c ****                             //Indsæt
 201:colorSensor.c ****                         //sprintf(str,"Green color detected\n\r");
 202:colorSensor.c ****                         //print(str);
 203:colorSensor.c ****                         countG = 0;
 204:colorSensor.c ****                         return 2;
 205:colorSensor.c ****                         }
 206:colorSensor.c ****                 }
ARM GAS  C:\Users\shynt\AppData\Local\Temp\ccqWQW6S.s 			page 14


 207:colorSensor.c ****                /* else
 208:colorSensor.c ****                 {
 209:colorSensor.c ****                       //sprintf(str,"Blue color detected\n\r");
 210:colorSensor.c ****                       //print(str);
 211:colorSensor.c ****                         //return 0;
 212:colorSensor.c ****                     return 5;
 213:colorSensor.c ****                 }*/
 214:colorSensor.c ****                 
 215:colorSensor.c ****             else if (freqB>freqB_0*1.1)
 533              		.loc 1 215 0
 534 00c4 164B     		ldr	r3, .L53+24
 535 00c6 D868     		ldr	r0, [r3, #12]
 536 00c8 FFF7FEFF 		bl	__aeabi_ui2d
 537              	.LVL66:
 538 00cc 0EA3     		adr	r3, .L53
 539 00ce D3E90023 		ldrd	r2, [r3]
 540 00d2 FFF7FEFF 		bl	__aeabi_dmul
 541              	.LVL67:
 542 00d6 0246     		mov	r2, r0
 543 00d8 0B46     		mov	r3, r1
 544 00da DDE90001 		ldrd	r0, [sp]
 545 00de FFF7FEFF 		bl	__aeabi_dcmpgt
 546              	.LVL68:
 547 00e2 0028     		cmp	r0, #0
 548 00e4 97D0     		beq	.L33
 216:colorSensor.c ****             {
 217:colorSensor.c ****             
 218:colorSensor.c ****             
 219:colorSensor.c ****                 if (freqB>freqG)
 549              		.loc 1 219 0
 550 00e6 AC42     		cmp	r4, r5
 551 00e8 95D2     		bcs	.L33
 220:colorSensor.c ****                 {
 221:colorSensor.c ****                         countB ++;
 552              		.loc 1 221 0
 553 00ea 09F10109 		add	r9, r9, #1
 554              	.LVL69:
 222:colorSensor.c ****                         if(countB==2)
 555              		.loc 1 222 0
 556 00ee B9F1020F 		cmp	r9, #2
 557 00f2 90D1     		bne	.L33
 223:colorSensor.c ****                         {
 224:colorSensor.c ****                         //sprintf(str,"Blue color detected\n\r");
 225:colorSensor.c ****                         //print(str);
 226:colorSensor.c ****                         countB = 0;
 227:colorSensor.c ****                         return 3;
 558              		.loc 1 227 0
 559 00f4 0320     		movs	r0, #3
 560 00f6 04E0     		b	.L37
 561              	.L42:
 179:colorSensor.c ****                         }
 562              		.loc 1 179 0
 563 00f8 0120     		movs	r0, #1
 564 00fa 02E0     		b	.L37
 565              	.L50:
 228:colorSensor.c ****                         }
 229:colorSensor.c ****                 }
ARM GAS  C:\Users\shynt\AppData\Local\Temp\ccqWQW6S.s 			page 15


 230:colorSensor.c ****              }
 231:colorSensor.c ****             }
 232:colorSensor.c ****             else
 233:colorSensor.c ****                 {
 234:colorSensor.c ****                     countU ++;
 235:colorSensor.c ****                     if(countU==2)
 236:colorSensor.c ****                      {   //Indsæt 'driveLeft funktion'
 237:colorSensor.c ****                     //sprintf(str,"Unknown color\n\r");
 238:colorSensor.c ****                     //print(str);
 239:colorSensor.c ****                     countU = 0;}
 240:colorSensor.c ****                     return 4;
 566              		.loc 1 240 0
 567 00fc 0420     		movs	r0, #4
 568 00fe 00E0     		b	.L37
 569              	.L44:
 204:colorSensor.c ****                         }
 570              		.loc 1 204 0
 571 0100 0220     		movs	r0, #2
 572              	.L37:
 241:colorSensor.c ****                 }
 242:colorSensor.c ****         }  
 243:colorSensor.c ****         
 244:colorSensor.c ****         
 245:colorSensor.c **** 
 246:colorSensor.c ****         return 0;
 247:colorSensor.c **** }
 573              		.loc 1 247 0
 574 0102 03B0     		add	sp, sp, #12
 575              		.cfi_def_cfa_offset 36
 576              		@ sp needed
 577 0104 BDE8F08F 		pop	{r4, r5, r6, r7, r8, r9, r10, fp, pc}
 578              	.LVL70:
 579              	.L54:
 580              		.align	3
 581              	.L53:
 582 0108 9A999999 		.word	-1717986918
 583 010c 9999F13F 		.word	1072798105
 584 0110 CDCCCCCC 		.word	-858993459
 585 0114 CCCCEC3F 		.word	1072483532
 586 0118 00000000 		.word	freqR_0
 587 011c 00000000 		.word	freqG_0
 588 0120 00000000 		.word	.LANCHOR0
 589              		.cfi_endproc
 590              	.LFE71:
 591              		.size	getColor, .-getColor
 592              		.comm	str,129,4
 593              		.global	Counter_cycle
 594              		.global	dataReady
 595              		.global	freqB_0
 596              		.comm	freqG_0,4,4
 597              		.comm	freqR_0,4,4
 598              		.global	freq
 599              		.bss
 600              		.align	2
 601              		.set	.LANCHOR0,. + 0
 602              		.type	freq, %object
 603              		.size	freq, 4
ARM GAS  C:\Users\shynt\AppData\Local\Temp\ccqWQW6S.s 			page 16


 604              	freq:
 605 0000 00000000 		.space	4
 606              		.type	Counter_cycle, %object
 607              		.size	Counter_cycle, 4
 608              	Counter_cycle:
 609 0004 00000000 		.space	4
 610              		.type	dataReady, %object
 611              		.size	dataReady, 4
 612              	dataReady:
 613 0008 00000000 		.space	4
 614              		.type	freqB_0, %object
 615              		.size	freqB_0, 4
 616              	freqB_0:
 617 000c 00000000 		.space	4
 618              		.text
 619              	.Letext0:
 620              		.file 2 "c:\\program files (x86)\\cypress\\psoc creator\\4.3\\psoc creator\\import\\gnu\\arm\\5.4.
 621              		.file 3 "c:\\program files (x86)\\cypress\\psoc creator\\4.3\\psoc creator\\import\\gnu\\arm\\5.4.
 622              		.file 4 "c:\\program files (x86)\\cypress\\psoc creator\\4.3\\psoc creator\\import\\gnu\\arm\\5.4.
 623              		.file 5 "Generated_Source\\PSoC5/core_cm3.h"
 624              		.file 6 "Generated_Source\\PSoC5/Counter.h"
 625              		.file 7 "Generated_Source\\PSoC5/Timer.h"
 626              		.file 8 "Generated_Source\\PSoC5/OE.h"
 627              		.file 9 "Generated_Source\\PSoC5/Timer_INT.h"
 628              		.file 10 "Generated_Source\\PSoC5/Counter_INT.h"
 629              		.file 11 "Generated_Source\\PSoC5/UART_1.h"
 630              		.file 12 "Generated_Source\\PSoC5/Control_Reg.h"
 631              		.file 13 "Generated_Source\\PSoC5/CyLib.h"
 632              		.file 14 "Generated_Source\\PSoC5/S0.h"
 633              		.file 15 "Generated_Source\\PSoC5/S1.h"
 634              		.file 16 "Generated_Source\\PSoC5/S2.h"
 635              		.file 17 "Generated_Source\\PSoC5/S3.h"