ARM GAS  C:\Users\shynt\AppData\Local\Temp\ccTBjPE8.s 			page 1


   1              		.syntax unified
   2              		.cpu cortex-m3
   3              		.fpu softvfp
   4              		.eabi_attribute 20, 1
   5              		.eabi_attribute 21, 1
   6              		.eabi_attribute 23, 3
   7              		.eabi_attribute 24, 1
   8              		.eabi_attribute 25, 1
   9              		.eabi_attribute 26, 1
  10              		.eabi_attribute 30, 1
  11              		.eabi_attribute 34, 1
  12              		.eabi_attribute 18, 4
  13              		.thumb
  14              		.syntax unified
  15              		.file	"main.c"
  16              		.text
  17              	.Ltext0:
  18              		.cfi_sections	.debug_frame
  19              		.section	.text.main,"ax",%progbits
  20              		.align	2
  21              		.global	main
  22              		.thumb
  23              		.thumb_func
  24              		.type	main, %function
  25              	main:
  26              	.LFB64:
  27              		.file 1 "main.c"
   1:main.c        **** /* ========================================
   2:main.c        ****  *
   3:main.c        ****  * Copyright YOUR COMPANY, THE YEAR
   4:main.c        ****  * All Rights Reserved
   5:main.c        ****  * UNPUBLISHED, LICENSED SOFTWARE.
   6:main.c        ****  *
   7:main.c        ****  * CONFIDENTIAL AND PROPRIETARY INFORMATION
   8:main.c        ****  * WHICH IS THE PROPERTY OF your company.
   9:main.c        ****  *
  10:main.c        ****  * ========================================
  11:main.c        **** */
  12:main.c        **** #include "project.h"
  13:main.c        **** #include <stdio.h>
  14:main.c        **** #include <stdint.h>
  15:main.c        **** #include "colorSensor.h"
  16:main.c        **** 
  17:main.c        **** static char str[128] ;
  18:main.c        **** void print(char *str) ;
  19:main.c        **** int main (void)
  20:main.c        **** {
  28              		.loc 1 20 0
  29              		.cfi_startproc
  30              		@ args = 0, pretend = 0, frame = 0
  31              		@ frame_needed = 0, uses_anonymous_args = 0
  32 0000 38B5     		push	{r3, r4, r5, lr}
  33              		.cfi_def_cfa_offset 16
  34              		.cfi_offset 3, -16
  35              		.cfi_offset 4, -12
  36              		.cfi_offset 5, -8
  37              		.cfi_offset 14, -4
ARM GAS  C:\Users\shynt\AppData\Local\Temp\ccTBjPE8.s 			page 2


  21:main.c        ****     standardColor();
  38              		.loc 1 21 0
  39 0002 FFF7FEFF 		bl	standardColor
  40              	.LVL0:
  22:main.c        ****     UART_1_Start();  
  41              		.loc 1 22 0
  42 0006 FFF7FEFF 		bl	UART_1_Start
  43              	.LVL1:
  23:main.c        ****     snprintf(str,sizeof(str),"MAIN"); 
  44              		.loc 1 23 0
  45 000a 204B     		ldr	r3, .L11
  46 000c 204A     		ldr	r2, .L11+4
  47 000e 92E80300 		ldmia	r2, {r0, r1}
  48 0012 1860     		str	r0, [r3]
  49 0014 1971     		strb	r1, [r3, #4]
  50              	.L9:
  51              	.LBB2:
  24:main.c        ****     
  25:main.c        ****  for(;;)
  26:main.c        **** {
  27:main.c        ****     int tal=getColor();
  52              		.loc 1 27 0
  53 0016 FFF7FEFF 		bl	getColor
  54              	.LVL2:
  55 001a 0446     		mov	r4, r0
  56              	.LVL3:
  28:main.c        ****     snprintf(str,sizeof(str),"%d",tal); 
  57              		.loc 1 28 0
  58 001c 1B4D     		ldr	r5, .L11
  59 001e 0346     		mov	r3, r0
  60 0020 1C4A     		ldr	r2, .L11+8
  61 0022 8021     		movs	r1, #128
  62 0024 2846     		mov	r0, r5
  63              	.LVL4:
  64 0026 FFF7FEFF 		bl	snprintf
  65              	.LVL5:
  29:main.c        ****     UART_1_PutString(str) ;
  66              		.loc 1 29 0
  67 002a 2846     		mov	r0, r5
  68 002c FFF7FEFF 		bl	UART_1_PutString
  69              	.LVL6:
  30:main.c        ****     
  31:main.c        ****     switch(tal)
  70              		.loc 1 31 0
  71 0030 013C     		subs	r4, r4, #1
  72              	.LVL7:
  73 0032 032C     		cmp	r4, #3
  74 0034 20D8     		bhi	.L2
  75 0036 DFE804F0 		tbb	[pc, r4]
  76              	.L4:
  77 003a 02       		.byte	(.L3-.L4)/2
  78 003b 09       		.byte	(.L5-.L4)/2
  79 003c 10       		.byte	(.L6-.L4)/2
  80 003d 19       		.byte	(.L7-.L4)/2
  81              		.p2align 1
  82              	.L3:
  32:main.c        ****     {
ARM GAS  C:\Users\shynt\AppData\Local\Temp\ccTBjPE8.s 			page 3


  33:main.c        ****      case 1:
  34:main.c        ****         {snprintf(str,sizeof(str),"RED\n\r");}
  83              		.loc 1 34 0
  84 003e 134B     		ldr	r3, .L11
  85 0040 154A     		ldr	r2, .L11+12
  86 0042 92E80300 		ldmia	r2, {r0, r1}
  87 0046 1860     		str	r0, [r3]
  88 0048 9980     		strh	r1, [r3, #4]	@ movhi
  35:main.c        ****         break;
  89              		.loc 1 35 0
  90 004a 1AE0     		b	.L8
  91              	.L5:
  36:main.c        ****      case 2:
  37:main.c        ****         {snprintf(str,sizeof(str),"GREEN\n\r");}
  92              		.loc 1 37 0
  93 004c 0F4B     		ldr	r3, .L11
  94 004e 134A     		ldr	r2, .L11+16
  95 0050 92E80300 		ldmia	r2, {r0, r1}
  96 0054 83E80300 		stmia	r3, {r0, r1}
  38:main.c        ****         break;   
  97              		.loc 1 38 0
  98 0058 13E0     		b	.L8
  99              	.L6:
  39:main.c        ****      case 3:
  40:main.c        ****         {snprintf(str,sizeof(str),"BLUE\n\r");}
 100              		.loc 1 40 0
 101 005a 0C4B     		ldr	r3, .L11
 102 005c 104A     		ldr	r2, .L11+20
 103 005e 92E80300 		ldmia	r2, {r0, r1}
 104 0062 1860     		str	r0, [r3]
 105 0064 9980     		strh	r1, [r3, #4]	@ movhi
 106 0066 090C     		lsrs	r1, r1, #16
 107 0068 9971     		strb	r1, [r3, #6]
  41:main.c        ****         break; 
 108              		.loc 1 41 0
 109 006a 0AE0     		b	.L8
 110              	.L7:
  42:main.c        ****      case 4:
  43:main.c        ****         {snprintf(str,sizeof(str),"UNKNOWN\n\r");}
 111              		.loc 1 43 0
 112 006c 0D4A     		ldr	r2, .L11+24
 113 006e 074B     		ldr	r3, .L11
 114 0070 07CA     		ldmia	r2, {r0, r1, r2}
 115 0072 03C3     		stmia	r3!, {r0, r1}
 116 0074 1A80     		strh	r2, [r3]	@ movhi
  44:main.c        ****         break; 
 117              		.loc 1 44 0
 118 0076 04E0     		b	.L8
 119              	.L2:
  45:main.c        ****      default:
  46:main.c        ****         {snprintf(str,sizeof(str),"DEFAULT\n\r");}
 120              		.loc 1 46 0
 121 0078 0B4A     		ldr	r2, .L11+28
 122 007a 044B     		ldr	r3, .L11
 123 007c 07CA     		ldmia	r2, {r0, r1, r2}
 124 007e 03C3     		stmia	r3!, {r0, r1}
 125 0080 1A80     		strh	r2, [r3]	@ movhi
ARM GAS  C:\Users\shynt\AppData\Local\Temp\ccTBjPE8.s 			page 4


 126              	.L8:
  47:main.c        ****         break;
  48:main.c        ****     }
  49:main.c        ****     
  50:main.c        ****     UART_1_PutString(str) ;
 127              		.loc 1 50 0
 128 0082 0248     		ldr	r0, .L11
 129 0084 FFF7FEFF 		bl	UART_1_PutString
 130              	.LVL8:
 131              	.LBE2:
  51:main.c        ****  } 
 132              		.loc 1 51 0
 133 0088 C5E7     		b	.L9
 134              	.L12:
 135 008a 00BF     		.align	2
 136              	.L11:
 137 008c 00000000 		.word	.LANCHOR0
 138 0090 00000000 		.word	.LC0
 139 0094 08000000 		.word	.LC1
 140 0098 0C000000 		.word	.LC2
 141 009c 14000000 		.word	.LC3
 142 00a0 1C000000 		.word	.LC4
 143 00a4 24000000 		.word	.LC5
 144 00a8 30000000 		.word	.LC6
 145              		.cfi_endproc
 146              	.LFE64:
 147              		.size	main, .-main
 148              		.section	.rodata.str1.4,"aMS",%progbits,1
 149              		.align	2
 150              	.LC0:
 151 0000 4D41494E 		.ascii	"MAIN\000"
 151      00
 152 0005 000000   		.space	3
 153              	.LC1:
 154 0008 256400   		.ascii	"%d\000"
 155 000b 00       		.space	1
 156              	.LC2:
 157 000c 5245440A 		.ascii	"RED\012\015\000"
 157      0D00
 158 0012 0000     		.space	2
 159              	.LC3:
 160 0014 47524545 		.ascii	"GREEN\012\015\000"
 160      4E0A0D00 
 161              	.LC4:
 162 001c 424C5545 		.ascii	"BLUE\012\015\000"
 162      0A0D00
 163 0023 00       		.space	1
 164              	.LC5:
 165 0024 554E4B4E 		.ascii	"UNKNOWN\012\015\000"
 165      4F574E0A 
 165      0D00
 166 002e 0000     		.space	2
 167              	.LC6:
 168 0030 44454641 		.ascii	"DEFAULT\012\015\000"
 168      554C540A 
 168      0D00
 169              		.bss
ARM GAS  C:\Users\shynt\AppData\Local\Temp\ccTBjPE8.s 			page 5


 170              		.align	2
 171              		.set	.LANCHOR0,. + 0
 172              		.type	str, %object
 173              		.size	str, 128
 174              	str:
 175 0000 00000000 		.space	128
 175      00000000 
 175      00000000 
 175      00000000 
 175      00000000 
 176              		.text
 177              	.Letext0:
 178              		.file 2 "c:\\program files (x86)\\cypress\\psoc creator\\4.3\\psoc creator\\import\\gnu\\arm\\5.4.
 179              		.file 3 "c:\\program files (x86)\\cypress\\psoc creator\\4.3\\psoc creator\\import\\gnu\\arm\\5.4.
 180              		.file 4 "colorSensor.h"
 181              		.file 5 "c:\\program files (x86)\\cypress\\psoc creator\\4.3\\psoc creator\\import\\gnu\\arm\\5.4.
 182              		.file 6 "Generated_Source\\PSoC5/UART_1.h"
 183              		.file 7 "Generated_Source\\PSoC5/core_cm3.h"