ARM GAS  C:\Users\PETERW~1\AppData\Local\Temp\ccqhW82Z.s 			page 1


   1              		.syntax unified
   2              		.cpu cortex-m3
   3              		.fpu softvfp
   4              		.eabi_attribute 20, 1
   5              		.eabi_attribute 21, 1
   6              		.eabi_attribute 23, 3
   7              		.eabi_attribute 24, 1
   8              		.eabi_attribute 25, 1
   9              		.eabi_attribute 26, 1
  10              		.eabi_attribute 30, 1
  11              		.eabi_attribute 34, 1
  12              		.eabi_attribute 18, 4
  13              		.thumb
  14              		.syntax unified
  15              		.file	"Afstandssensor.c"
  16              		.text
  17              	.Ltext0:
  18              		.cfi_sections	.debug_frame
  19              		.section	.text.initDistSens,"ax",%progbits
  20              		.align	2
  21              		.global	initDistSens
  22              		.thumb
  23              		.thumb_func
  24              		.type	initDistSens, %function
  25              	initDistSens:
  26              	.LFB64:
  27              		.file 1 "Afstandssensor.c"
   1:Afstandssensor.c **** /* ========================================
   2:Afstandssensor.c ****  *
   3:Afstandssensor.c ****  * Copyright YOUR COMPANY, THE YEAR
   4:Afstandssensor.c ****  * All Rights Reserved
   5:Afstandssensor.c ****  * UNPUBLISHED, LICENSED SOFTWARE.
   6:Afstandssensor.c ****  *
   7:Afstandssensor.c ****  * CONFIDENTIAL AND PROPRIETARY INFORMATION
   8:Afstandssensor.c ****  * WHICH IS THE PROPERTY OF your company.
   9:Afstandssensor.c ****  *
  10:Afstandssensor.c ****  * ========================================
  11:Afstandssensor.c **** */
  12:Afstandssensor.c **** #include "project.h"
  13:Afstandssensor.c **** #include <stdio.h>
  14:Afstandssensor.c **** #include <stdlib.h>
  15:Afstandssensor.c **** 
  16:Afstandssensor.c **** int distance;
  17:Afstandssensor.c **** CY_ISR_PROTO(Timer_int_1_Handler);
  18:Afstandssensor.c **** 
  19:Afstandssensor.c **** 
  20:Afstandssensor.c **** void initDistSens()
  21:Afstandssensor.c **** {
  28              		.loc 1 21 0
  29              		.cfi_startproc
  30              		@ args = 0, pretend = 0, frame = 0
  31              		@ frame_needed = 0, uses_anonymous_args = 0
  32 0000 08B5     		push	{r3, lr}
  33              		.cfi_def_cfa_offset 8
  34              		.cfi_offset 3, -8
  35              		.cfi_offset 14, -4
  22:Afstandssensor.c ****     PWM_Trigger_Start();
ARM GAS  C:\Users\PETERW~1\AppData\Local\Temp\ccqhW82Z.s 			page 2


  36              		.loc 1 22 0
  37 0002 FFF7FEFF 		bl	PWM_Trigger_Start
  38              	.LVL0:
  23:Afstandssensor.c ****     Timer_1_Start();
  39              		.loc 1 23 0
  40 0006 FFF7FEFF 		bl	Timer_1_Start
  41              	.LVL1:
  24:Afstandssensor.c ****     Timer_int_1_StartEx(Timer_int_1_Handler);
  42              		.loc 1 24 0
  43 000a 0248     		ldr	r0, .L3
  44 000c FFF7FEFF 		bl	Timer_int_1_StartEx
  45              	.LVL2:
  46 0010 08BD     		pop	{r3, pc}
  47              	.L4:
  48 0012 00BF     		.align	2
  49              	.L3:
  50 0014 00000000 		.word	Timer_int_1_Handler
  51              		.cfi_endproc
  52              	.LFE64:
  53              		.size	initDistSens, .-initDistSens
  54              		.global	__aeabi_i2d
  55              		.global	__aeabi_dmul
  56              		.global	__aeabi_d2iz
  57              		.section	.text.calcDist,"ax",%progbits
  58              		.align	2
  59              		.global	calcDist
  60              		.thumb
  61              		.thumb_func
  62              		.type	calcDist, %function
  63              	calcDist:
  64              	.LFB65:
  25:Afstandssensor.c **** }
  26:Afstandssensor.c **** 
  27:Afstandssensor.c **** int calcDist()
  28:Afstandssensor.c **** {
  65              		.loc 1 28 0
  66              		.cfi_startproc
  67              		@ args = 0, pretend = 0, frame = 0
  68              		@ frame_needed = 0, uses_anonymous_args = 0
  69 0000 10B5     		push	{r4, lr}
  70              		.cfi_def_cfa_offset 8
  71              		.cfi_offset 4, -8
  72              		.cfi_offset 14, -4
  29:Afstandssensor.c ****     int capture = Timer_1_ReadCapture();
  73              		.loc 1 29 0
  74 0002 FFF7FEFF 		bl	Timer_1_ReadCapture
  75              	.LVL3:
  76 0006 0446     		mov	r4, r0
  77              	.LVL4:
  30:Afstandssensor.c ****     
  31:Afstandssensor.c ****     distance = (65535 - capture) * 0.017;
  78              		.loc 1 31 0
  79 0008 C0F57F40 		rsb	r0, r0, #65280
  80              	.LVL5:
  81 000c FF30     		adds	r0, r0, #255
  82 000e FFF7FEFF 		bl	__aeabi_i2d
  83              	.LVL6:
ARM GAS  C:\Users\PETERW~1\AppData\Local\Temp\ccqhW82Z.s 			page 3


  84 0012 0BA3     		adr	r3, .L8
  85 0014 D3E90023 		ldrd	r2, [r3]
  86 0018 FFF7FEFF 		bl	__aeabi_dmul
  87              	.LVL7:
  88 001c FFF7FEFF 		bl	__aeabi_d2iz
  89              	.LVL8:
  90 0020 094B     		ldr	r3, .L8+8
  91 0022 1860     		str	r0, [r3]
  32:Afstandssensor.c ****     if(capture > 65250 && capture < 65340)
  92              		.loc 1 32 0
  93 0024 A4F57E40 		sub	r0, r4, #65024
  94 0028 E338     		subs	r0, r0, #227
  95 002a 5828     		cmp	r0, #88
  96 002c 02D8     		bhi	.L6
  33:Afstandssensor.c ****     {
  34:Afstandssensor.c ****         distance = 500;
  97              		.loc 1 34 0
  98 002e 4FF4FA72 		mov	r2, #500
  99 0032 1A60     		str	r2, [r3]
 100              	.L6:
  35:Afstandssensor.c ****     }
  36:Afstandssensor.c ****     return distance;
  37:Afstandssensor.c **** }
 101              		.loc 1 37 0
 102 0034 044B     		ldr	r3, .L8+8
 103 0036 1868     		ldr	r0, [r3]
 104 0038 10BD     		pop	{r4, pc}
 105              	.LVL9:
 106              	.L9:
 107 003a 00BFAFF3 		.align	3
 107      0080
 108              	.L8:
 109 0040 9CC420B0 		.word	-1340029796
 110 0044 7268913F 		.word	1066494066
 111 0048 00000000 		.word	distance
 112              		.cfi_endproc
 113              	.LFE65:
 114              		.size	calcDist, .-calcDist
 115              		.section	.text.getDistance,"ax",%progbits
 116              		.align	2
 117              		.global	getDistance
 118              		.thumb
 119              		.thumb_func
 120              		.type	getDistance, %function
 121              	getDistance:
 122              	.LFB66:
  38:Afstandssensor.c **** 
  39:Afstandssensor.c **** int getDistance(distance)
  40:Afstandssensor.c **** {
 123              		.loc 1 40 0
 124              		.cfi_startproc
 125              		@ args = 0, pretend = 0, frame = 0
 126              		@ frame_needed = 0, uses_anonymous_args = 0
 127              		@ link register save eliminated.
 128              	.LVL10:
  41:Afstandssensor.c ****     return distance;
  42:Afstandssensor.c **** }
ARM GAS  C:\Users\PETERW~1\AppData\Local\Temp\ccqhW82Z.s 			page 4


 129              		.loc 1 42 0
 130 0000 7047     		bx	lr
 131              		.cfi_endproc
 132              	.LFE66:
 133              		.size	getDistance, .-getDistance
 134 0002 00BF     		.section	.text.Timer_int_1_Handler,"ax",%progbits
 135              		.align	2
 136              		.global	Timer_int_1_Handler
 137              		.thumb
 138              		.thumb_func
 139              		.type	Timer_int_1_Handler, %function
 140              	Timer_int_1_Handler:
 141              	.LFB67:
  43:Afstandssensor.c **** 
  44:Afstandssensor.c **** 
  45:Afstandssensor.c **** 
  46:Afstandssensor.c **** CY_ISR(Timer_int_1_Handler)
  47:Afstandssensor.c **** {
 142              		.loc 1 47 0
 143              		.cfi_startproc
 144              		@ args = 0, pretend = 0, frame = 0
 145              		@ frame_needed = 0, uses_anonymous_args = 0
 146 0000 08B5     		push	{r3, lr}
 147              		.cfi_def_cfa_offset 8
 148              		.cfi_offset 3, -8
 149              		.cfi_offset 14, -4
  48:Afstandssensor.c ****     distance = getDistance(calcDist());
 150              		.loc 1 48 0
 151 0002 FFF7FEFF 		bl	calcDist
 152              	.LVL11:
 153 0006 FFF7FEFF 		bl	getDistance
 154              	.LVL12:
 155 000a 024B     		ldr	r3, .L13
 156 000c 1860     		str	r0, [r3]
  49:Afstandssensor.c ****     Timer_1_ClearFIFO();
 157              		.loc 1 49 0
 158 000e FFF7FEFF 		bl	Timer_1_ClearFIFO
 159              	.LVL13:
 160 0012 08BD     		pop	{r3, pc}
 161              	.L14:
 162              		.align	2
 163              	.L13:
 164 0014 00000000 		.word	distance
 165              		.cfi_endproc
 166              	.LFE67:
 167              		.size	Timer_int_1_Handler, .-Timer_int_1_Handler
 168              		.comm	distance,4,4
 169              		.text
 170              	.Letext0:
 171              		.file 2 "c:\\program files (x86)\\cypress\\psoc creator\\4.3\\psoc creator\\import\\gnu\\arm\\5.4.
 172              		.file 3 "c:\\program files (x86)\\cypress\\psoc creator\\4.3\\psoc creator\\import\\gnu\\arm\\5.4.
 173              		.file 4 "Generated_Source\\PSoC5/core_cm3.h"
 174              		.file 5 "Generated_Source\\PSoC5/PWM_Trigger.h"
 175              		.file 6 "Generated_Source\\PSoC5/Timer_1.h"
 176              		.file 7 "Generated_Source\\PSoC5/Timer_int_1.h"