ARM GAS  C:\Users\PETERW~1\AppData\Local\Temp\ccAeJmqq.s 			page 1


   1              		.syntax unified
   2              		.cpu cortex-m3
   3              		.fpu softvfp
   4              		.eabi_attribute 20, 1
   5              		.eabi_attribute 21, 1
   6              		.eabi_attribute 23, 3
   7              		.eabi_attribute 24, 1
   8              		.eabi_attribute 25, 1
   9              		.eabi_attribute 26, 1
  10              		.eabi_attribute 30, 1
  11              		.eabi_attribute 34, 1
  12              		.eabi_attribute 18, 4
  13              		.thumb
  14              		.syntax unified
  15              		.file	"colorSensor.c"
  16              		.text
  17              	.Ltext0:
  18              		.cfi_sections	.debug_frame
  19              		.section	.text.timer_isr,"ax",%progbits
  20              		.align	2
  21              		.global	timer_isr
  22              		.thumb
  23              		.thumb_func
  24              		.type	timer_isr, %function
  25              	timer_isr:
  26              	.LFB64:
  27              		.file 1 "colorSensor.c"
   1:colorSensor.c **** 
   2:colorSensor.c **** /* ========================================
   3:colorSensor.c ****  *
   4:colorSensor.c ****  * Copyright Lucas, 2020
   5:colorSensor.c ****  * All Rights Reserved
   6:colorSensor.c ****  * UNPUBLISHED, LICENSED SOFTWARE.
   7:colorSensor.c ****  *
   8:colorSensor.c ****  * CONFIDENTIAL AND PROPRIETARY INFORMATION
   9:colorSensor.c ****  * WHICH IS THE PROPERTY OF your company.
  10:colorSensor.c ****  *
  11:colorSensor.c ****  * ========================================
  12:colorSensor.c **** */
  13:colorSensor.c **** #include "project.h"
  14:colorSensor.c **** #include <stdio.h>
  15:colorSensor.c **** #include <stdint.h>
  16:colorSensor.c **** #include "colorSensor.h"
  17:colorSensor.c **** 
  18:colorSensor.c **** #define COUNTER_SIZE 10000
  19:colorSensor.c **** uint32_t freq  = 0;
  20:colorSensor.c **** uint freqR_0, freqG_0, freqB_0 = 0;
  21:colorSensor.c **** int dataReady = 0;
  22:colorSensor.c **** int Counter_cycle = 0;
  23:colorSensor.c **** #define STRING_LENGTH 128  
  24:colorSensor.c **** extern char str[] ;
  25:colorSensor.c **** void print(char *str) ;
  26:colorSensor.c **** 
  27:colorSensor.c **** CY_ISR(timer_isr)//Timer i interrupt routine
  28:colorSensor.c **** {
  28              		.loc 1 28 0
  29              		.cfi_startproc
ARM GAS  C:\Users\PETERW~1\AppData\Local\Temp\ccAeJmqq.s 			page 2


  30              		@ args = 0, pretend = 0, frame = 0
  31              		@ frame_needed = 0, uses_anonymous_args = 0
  32 0000 10B5     		push	{r4, lr}
  33              		.cfi_def_cfa_offset 8
  34              		.cfi_offset 4, -8
  35              		.cfi_offset 14, -4
  29:colorSensor.c ****     Counter_Stop();
  36              		.loc 1 29 0
  37 0002 FFF7FEFF 		bl	Counter_Stop
  38              	.LVL0:
  30:colorSensor.c ****     Timer_Stop();
  39              		.loc 1 30 0
  40 0006 FFF7FEFF 		bl	Timer_Stop
  41              	.LVL1:
  31:colorSensor.c ****     freq = Counter_ReadCounter();
  42              		.loc 1 31 0
  43 000a FFF7FEFF 		bl	Counter_ReadCounter
  44              	.LVL2:
  45 000e 074C     		ldr	r4, .L3
  32:colorSensor.c ****     freq += Counter_cycle * COUNTER_SIZE;
  46              		.loc 1 32 0
  47 0010 6368     		ldr	r3, [r4, #4]
  48 0012 42F21072 		movw	r2, #10000
  49 0016 02FB0300 		mla	r0, r2, r3, r0
  50 001a 2060     		str	r0, [r4]
  33:colorSensor.c ****     OE_Write(1);
  51              		.loc 1 33 0
  52 001c 0120     		movs	r0, #1
  53 001e FFF7FEFF 		bl	OE_Write
  54              	.LVL3:
  34:colorSensor.c ****     Timer_INT_ClearPending();
  55              		.loc 1 34 0
  56 0022 FFF7FEFF 		bl	Timer_INT_ClearPending
  57              	.LVL4:
  35:colorSensor.c ****     dataReady = 1;
  58              		.loc 1 35 0
  59 0026 0123     		movs	r3, #1
  60 0028 A360     		str	r3, [r4, #8]
  61 002a 10BD     		pop	{r4, pc}
  62              	.L4:
  63              		.align	2
  64              	.L3:
  65 002c 00000000 		.word	.LANCHOR0
  66              		.cfi_endproc
  67              	.LFE64:
  68              		.size	timer_isr, .-timer_isr
  69              		.section	.text.counter_isr,"ax",%progbits
  70              		.align	2
  71              		.global	counter_isr
  72              		.thumb
  73              		.thumb_func
  74              		.type	counter_isr, %function
  75              	counter_isr:
  76              	.LFB65:
  36:colorSensor.c **** }
  37:colorSensor.c **** 
  38:colorSensor.c **** 
ARM GAS  C:\Users\PETERW~1\AppData\Local\Temp\ccAeJmqq.s 			page 3


  39:colorSensor.c **** CY_ISR(counter_isr)//Counter i interrupt routine
  40:colorSensor.c **** {
  77              		.loc 1 40 0
  78              		.cfi_startproc
  79              		@ args = 0, pretend = 0, frame = 0
  80              		@ frame_needed = 0, uses_anonymous_args = 0
  81 0000 08B5     		push	{r3, lr}
  82              		.cfi_def_cfa_offset 8
  83              		.cfi_offset 3, -8
  84              		.cfi_offset 14, -4
  41:colorSensor.c ****     Counter_INT_ClearPending();
  85              		.loc 1 41 0
  86 0002 FFF7FEFF 		bl	Counter_INT_ClearPending
  87              	.LVL5:
  42:colorSensor.c ****     Counter_cycle++;
  88              		.loc 1 42 0
  89 0006 024A     		ldr	r2, .L7
  90 0008 5368     		ldr	r3, [r2, #4]
  91 000a 0133     		adds	r3, r3, #1
  92 000c 5360     		str	r3, [r2, #4]
  93 000e 08BD     		pop	{r3, pc}
  94              	.L8:
  95              		.align	2
  96              	.L7:
  97 0010 00000000 		.word	.LANCHOR0
  98              		.cfi_endproc
  99              	.LFE65:
 100              		.size	counter_isr, .-counter_isr
 101              		.section	.text.init_start,"ax",%progbits
 102              		.align	2
 103              		.global	init_start
 104              		.thumb
 105              		.thumb_func
 106              		.type	init_start, %function
 107              	init_start:
 108              	.LFB66:
  43:colorSensor.c **** }
  44:colorSensor.c **** 
  45:colorSensor.c **** void init_start(void)//Starter de indbyggede funktioner fra topdesign: UART, Timer, Counter
  46:colorSensor.c **** {
 109              		.loc 1 46 0
 110              		.cfi_startproc
 111              		@ args = 0, pretend = 0, frame = 0
 112              		@ frame_needed = 0, uses_anonymous_args = 0
 113 0000 08B5     		push	{r3, lr}
 114              		.cfi_def_cfa_offset 8
 115              		.cfi_offset 3, -8
 116              		.cfi_offset 14, -4
  47:colorSensor.c ****     CyGlobalIntEnable;
 117              		.loc 1 47 0
 118              		.syntax unified
 119              	@ 47 "colorSensor.c" 1
 120 0002 62B6     		CPSIE   i
 121              	@ 0 "" 2
  48:colorSensor.c ****     
  49:colorSensor.c ****     Timer_INT_StartEx(timer_isr);
 122              		.loc 1 49 0
ARM GAS  C:\Users\PETERW~1\AppData\Local\Temp\ccAeJmqq.s 			page 4


 123              		.thumb
 124              		.syntax unified
 125 0004 0348     		ldr	r0, .L11
 126 0006 FFF7FEFF 		bl	Timer_INT_StartEx
 127              	.LVL6:
  50:colorSensor.c ****     Counter_INT_StartEx(counter_isr);
 128              		.loc 1 50 0
 129 000a 0348     		ldr	r0, .L11+4
 130 000c FFF7FEFF 		bl	Counter_INT_StartEx
 131              	.LVL7:
 132 0010 08BD     		pop	{r3, pc}
 133              	.L12:
 134 0012 00BF     		.align	2
 135              	.L11:
 136 0014 00000000 		.word	timer_isr
 137 0018 00000000 		.word	counter_isr
 138              		.cfi_endproc
 139              	.LFE66:
 140              		.size	init_start, .-init_start
 141              		.section	.text.read_color,"ax",%progbits
 142              		.align	2
 143              		.global	read_color
 144              		.thumb
 145              		.thumb_func
 146              		.type	read_color, %function
 147              	read_color:
 148              	.LFB67:
  51:colorSensor.c **** }
  52:colorSensor.c **** 
  53:colorSensor.c **** void read_color(void)//Omdanner inputs til frekvens vha. counter og timeren
  54:colorSensor.c **** {
 149              		.loc 1 54 0
 150              		.cfi_startproc
 151              		@ args = 0, pretend = 0, frame = 0
 152              		@ frame_needed = 0, uses_anonymous_args = 0
 153 0000 08B5     		push	{r3, lr}
 154              		.cfi_def_cfa_offset 8
 155              		.cfi_offset 3, -8
 156              		.cfi_offset 14, -4
  55:colorSensor.c ****     OE_Write(0);
 157              		.loc 1 55 0
 158 0002 0020     		movs	r0, #0
 159 0004 FFF7FEFF 		bl	OE_Write
 160              	.LVL8:
  56:colorSensor.c ****     Control_Reg_Write(1);
 161              		.loc 1 56 0
 162 0008 0120     		movs	r0, #1
 163 000a FFF7FEFF 		bl	Control_Reg_Write
 164              	.LVL9:
  57:colorSensor.c ****     CyDelay(1);
 165              		.loc 1 57 0
 166 000e 0120     		movs	r0, #1
 167 0010 FFF7FEFF 		bl	CyDelay
 168              	.LVL10:
  58:colorSensor.c ****     Control_Reg_Write(0);
 169              		.loc 1 58 0
 170 0014 0020     		movs	r0, #0
ARM GAS  C:\Users\PETERW~1\AppData\Local\Temp\ccAeJmqq.s 			page 5


 171 0016 FFF7FEFF 		bl	Control_Reg_Write
 172              	.LVL11:
  59:colorSensor.c ****     dataReady = 0;
 173              		.loc 1 59 0
 174 001a 074B     		ldr	r3, .L15
 175 001c 0022     		movs	r2, #0
 176 001e 9A60     		str	r2, [r3, #8]
  60:colorSensor.c ****     Counter_cycle = 0;
 177              		.loc 1 60 0
 178 0020 5A60     		str	r2, [r3, #4]
  61:colorSensor.c ****     Counter_Start();
 179              		.loc 1 61 0
 180 0022 FFF7FEFF 		bl	Counter_Start
 181              	.LVL12:
  62:colorSensor.c ****     Timer_INT_StartEx(timer_isr);
 182              		.loc 1 62 0
 183 0026 0548     		ldr	r0, .L15+4
 184 0028 FFF7FEFF 		bl	Timer_INT_StartEx
 185              	.LVL13:
  63:colorSensor.c ****     Counter_INT_StartEx(counter_isr);
 186              		.loc 1 63 0
 187 002c 0448     		ldr	r0, .L15+8
 188 002e FFF7FEFF 		bl	Counter_INT_StartEx
 189              	.LVL14:
  64:colorSensor.c ****     
  65:colorSensor.c ****     Timer_Start();
 190              		.loc 1 65 0
 191 0032 FFF7FEFF 		bl	Timer_Start
 192              	.LVL15:
 193 0036 08BD     		pop	{r3, pc}
 194              	.L16:
 195              		.align	2
 196              	.L15:
 197 0038 00000000 		.word	.LANCHOR0
 198 003c 00000000 		.word	timer_isr
 199 0040 00000000 		.word	counter_isr
 200              		.cfi_endproc
 201              	.LFE67:
 202              		.size	read_color, .-read_color
 203              		.section	.text.get_freq,"ax",%progbits
 204              		.align	2
 205              		.global	get_freq
 206              		.thumb
 207              		.thumb_func
 208              		.type	get_freq, %function
 209              	get_freq:
 210              	.LFB68:
  66:colorSensor.c **** }
  67:colorSensor.c **** 
  68:colorSensor.c **** int get_freq(char color)//Modtager input på baggrund af indstillinger for farvefilter samt scaling
  69:colorSensor.c **** {
 211              		.loc 1 69 0
 212              		.cfi_startproc
 213              		@ args = 0, pretend = 0, frame = 0
 214              		@ frame_needed = 0, uses_anonymous_args = 0
 215              	.LVL16:
 216 0000 10B5     		push	{r4, lr}
ARM GAS  C:\Users\PETERW~1\AppData\Local\Temp\ccAeJmqq.s 			page 6


 217              		.cfi_def_cfa_offset 8
 218              		.cfi_offset 4, -8
 219              		.cfi_offset 14, -4
 220 0002 0446     		mov	r4, r0
  70:colorSensor.c ****     //scaling 2%
  71:colorSensor.c ****     S0_Write(0);
 221              		.loc 1 71 0
 222 0004 0020     		movs	r0, #0
 223              	.LVL17:
 224 0006 FFF7FEFF 		bl	S0_Write
 225              	.LVL18:
  72:colorSensor.c ****     S1_Write(1);
 226              		.loc 1 72 0
 227 000a 0120     		movs	r0, #1
 228 000c FFF7FEFF 		bl	S1_Write
 229              	.LVL19:
  73:colorSensor.c ****     
  74:colorSensor.c ****    if(color=='r')//Rød farve-filter tilføjes og frekvensen registeres
 230              		.loc 1 74 0
 231 0010 722C     		cmp	r4, #114
 232 0012 08D1     		bne	.L18
  75:colorSensor.c ****     {   
  76:colorSensor.c ****         S2_Write(0);
 233              		.loc 1 76 0
 234 0014 0020     		movs	r0, #0
 235 0016 FFF7FEFF 		bl	S2_Write
 236              	.LVL20:
  77:colorSensor.c ****         S3_Write(0);
 237              		.loc 1 77 0
 238 001a 0020     		movs	r0, #0
 239 001c FFF7FEFF 		bl	S3_Write
 240              	.LVL21:
  78:colorSensor.c ****         read_color();
 241              		.loc 1 78 0
 242 0020 FFF7FEFF 		bl	read_color
 243              	.LVL22:
 244 0024 1FE0     		b	.L22
 245              	.L18:
  79:colorSensor.c ****     }
  80:colorSensor.c ****     
  81:colorSensor.c ****     else if(color=='g')//Grøn farve-filter tilføjes og frekvensen registeres
 246              		.loc 1 81 0
 247 0026 672C     		cmp	r4, #103
 248 0028 08D1     		bne	.L20
  82:colorSensor.c ****     { 
  83:colorSensor.c ****         S2_Write(1);
 249              		.loc 1 83 0
 250 002a 0120     		movs	r0, #1
 251 002c FFF7FEFF 		bl	S2_Write
 252              	.LVL23:
  84:colorSensor.c ****         S3_Write(1);
 253              		.loc 1 84 0
 254 0030 0120     		movs	r0, #1
 255 0032 FFF7FEFF 		bl	S3_Write
 256              	.LVL24:
  85:colorSensor.c ****         read_color();
 257              		.loc 1 85 0
ARM GAS  C:\Users\PETERW~1\AppData\Local\Temp\ccAeJmqq.s 			page 7


 258 0036 FFF7FEFF 		bl	read_color
 259              	.LVL25:
 260 003a 14E0     		b	.L22
 261              	.L20:
  86:colorSensor.c ****     }
  87:colorSensor.c ****     
  88:colorSensor.c ****     else if(color=='b')//Blå farve-filter tilføjes og frekvensen registeres
 262              		.loc 1 88 0
 263 003c 622C     		cmp	r4, #98
 264 003e 08D1     		bne	.L21
  89:colorSensor.c ****     {
  90:colorSensor.c ****         S2_Write(0);
 265              		.loc 1 90 0
 266 0040 0020     		movs	r0, #0
 267 0042 FFF7FEFF 		bl	S2_Write
 268              	.LVL26:
  91:colorSensor.c ****         S3_Write(1);
 269              		.loc 1 91 0
 270 0046 0120     		movs	r0, #1
 271 0048 FFF7FEFF 		bl	S3_Write
 272              	.LVL27:
  92:colorSensor.c ****         read_color();
 273              		.loc 1 92 0
 274 004c FFF7FEFF 		bl	read_color
 275              	.LVL28:
 276 0050 09E0     		b	.L22
 277              	.L21:
  93:colorSensor.c ****     }
  94:colorSensor.c ****     else if(color=='c')//'Clear' farve-filter tilføjes og frekvensen registeres
 278              		.loc 1 94 0
 279 0052 632C     		cmp	r4, #99
 280 0054 07D1     		bne	.L22
  95:colorSensor.c ****     {
  96:colorSensor.c ****         S2_Write(1);
 281              		.loc 1 96 0
 282 0056 0120     		movs	r0, #1
 283 0058 FFF7FEFF 		bl	S2_Write
 284              	.LVL29:
  97:colorSensor.c ****         S3_Write(0);
 285              		.loc 1 97 0
 286 005c 0020     		movs	r0, #0
 287 005e FFF7FEFF 		bl	S3_Write
 288              	.LVL30:
  98:colorSensor.c ****         read_color();
 289              		.loc 1 98 0
 290 0062 FFF7FEFF 		bl	read_color
 291              	.LVL31:
 292              	.L22:
  99:colorSensor.c ****     }
 100:colorSensor.c ****     
 101:colorSensor.c ****    
 102:colorSensor.c ****     
 103:colorSensor.c ****     while(!dataReady)
 293              		.loc 1 103 0 discriminator 1
 294 0066 034B     		ldr	r3, .L24
 295 0068 9B68     		ldr	r3, [r3, #8]
 296 006a 002B     		cmp	r3, #0
ARM GAS  C:\Users\PETERW~1\AppData\Local\Temp\ccAeJmqq.s 			page 8


 297 006c FBD0     		beq	.L22
 104:colorSensor.c ****     {
 105:colorSensor.c ****     ;
 106:colorSensor.c ****     }
 107:colorSensor.c ****     return freq;
 108:colorSensor.c ****     
 109:colorSensor.c ****  
 110:colorSensor.c **** 
 111:colorSensor.c **** }
 298              		.loc 1 111 0
 299 006e 014B     		ldr	r3, .L24
 300 0070 1868     		ldr	r0, [r3]
 301 0072 10BD     		pop	{r4, pc}
 302              	.L25:
 303              		.align	2
 304              	.L24:
 305 0074 00000000 		.word	.LANCHOR0
 306              		.cfi_endproc
 307              	.LFE68:
 308              		.size	get_freq, .-get_freq
 309              		.section	.text.standardColor,"ax",%progbits
 310              		.align	2
 311              		.global	standardColor
 312              		.thumb
 313              		.thumb_func
 314              		.type	standardColor, %function
 315              	standardColor:
 316              	.LFB69:
 112:colorSensor.c **** 
 113:colorSensor.c **** 
 114:colorSensor.c **** 
 115:colorSensor.c **** 
 116:colorSensor.c **** int standardColor()
 117:colorSensor.c **** {
 317              		.loc 1 117 0
 318              		.cfi_startproc
 319              		@ args = 0, pretend = 0, frame = 0
 320              		@ frame_needed = 0, uses_anonymous_args = 0
 321 0000 08B5     		push	{r3, lr}
 322              		.cfi_def_cfa_offset 8
 323              		.cfi_offset 3, -8
 324              		.cfi_offset 14, -4
 118:colorSensor.c **** 
 119:colorSensor.c ****     
 120:colorSensor.c ****     init_start();
 325              		.loc 1 120 0
 326 0002 FFF7FEFF 		bl	init_start
 327              	.LVL32:
 121:colorSensor.c ****     read_color();
 328              		.loc 1 121 0
 329 0006 FFF7FEFF 		bl	read_color
 330              	.LVL33:
 122:colorSensor.c **** 
 123:colorSensor.c ****     freqR_0 = get_freq('r');
 331              		.loc 1 123 0
 332 000a 7220     		movs	r0, #114
 333 000c FFF7FEFF 		bl	get_freq
ARM GAS  C:\Users\PETERW~1\AppData\Local\Temp\ccAeJmqq.s 			page 9


 334              	.LVL34:
 335 0010 064B     		ldr	r3, .L28
 336 0012 1860     		str	r0, [r3]
 124:colorSensor.c ****     freqG_0 = get_freq('g');
 337              		.loc 1 124 0
 338 0014 6720     		movs	r0, #103
 339 0016 FFF7FEFF 		bl	get_freq
 340              	.LVL35:
 341 001a 054B     		ldr	r3, .L28+4
 342 001c 1860     		str	r0, [r3]
 125:colorSensor.c ****     freqB_0 = get_freq('b');
 343              		.loc 1 125 0
 344 001e 6220     		movs	r0, #98
 345 0020 FFF7FEFF 		bl	get_freq
 346              	.LVL36:
 347 0024 034B     		ldr	r3, .L28+8
 348 0026 D860     		str	r0, [r3, #12]
 126:colorSensor.c ****     
 127:colorSensor.c ****   return 0;  
 128:colorSensor.c **** }
 349              		.loc 1 128 0
 350 0028 0020     		movs	r0, #0
 351 002a 08BD     		pop	{r3, pc}
 352              	.L29:
 353              		.align	2
 354              	.L28:
 355 002c 00000000 		.word	freqR_0
 356 0030 00000000 		.word	freqG_0
 357 0034 00000000 		.word	.LANCHOR0
 358              		.cfi_endproc
 359              	.LFE69:
 360              		.size	standardColor, .-standardColor
 361              		.global	__aeabi_ui2d
 362              		.global	__aeabi_dmul
 363              		.global	__aeabi_dcmpgt
 364              		.global	__aeabi_dadd
 365              		.section	.text.getColor,"ax",%progbits
 366              		.align	2
 367              		.global	getColor
 368              		.thumb
 369              		.thumb_func
 370              		.type	getColor, %function
 371              	getColor:
 372              	.LFB70:
 129:colorSensor.c **** 
 130:colorSensor.c **** int getColor()
 131:colorSensor.c **** {
 373              		.loc 1 131 0
 374              		.cfi_startproc
 375              		@ args = 0, pretend = 0, frame = 0
 376              		@ frame_needed = 0, uses_anonymous_args = 0
 377 0000 2DE9F047 		push	{r4, r5, r6, r7, r8, r9, r10, lr}
 378              		.cfi_def_cfa_offset 32
 379              		.cfi_offset 4, -32
 380              		.cfi_offset 5, -28
 381              		.cfi_offset 6, -24
 382              		.cfi_offset 7, -20
ARM GAS  C:\Users\PETERW~1\AppData\Local\Temp\ccAeJmqq.s 			page 10


 383              		.cfi_offset 8, -16
 384              		.cfi_offset 9, -12
 385              		.cfi_offset 10, -8
 386              		.cfi_offset 14, -4
 387              	.LVL37:
 132:colorSensor.c **** uint freqR, freqG, freqB = 0;
 133:colorSensor.c **** uint countR = 0;
 134:colorSensor.c **** uint countG = 0;
 135:colorSensor.c **** uint countB = 0;
 136:colorSensor.c **** uint countU = 0;
 137:colorSensor.c **** 
 138:colorSensor.c ****     
 139:colorSensor.c ****     init_start();
 388              		.loc 1 139 0
 389 0004 FFF7FEFF 		bl	init_start
 390              	.LVL38:
 140:colorSensor.c ****     read_color();
 391              		.loc 1 140 0
 392 0008 FFF7FEFF 		bl	read_color
 393              	.LVL39:
 394              	.L33:
 141:colorSensor.c ****     
 142:colorSensor.c ****  //   freqR_0 = get_freq('r');
 143:colorSensor.c ****  //   freqG_0 = get_freq('g');
 144:colorSensor.c ****  //   freqB_0 = get_freq('b');  
 145:colorSensor.c ****         for(;;)
 146:colorSensor.c ****         {
 147:colorSensor.c ****             
 148:colorSensor.c ****             freqR = get_freq('r');
 395              		.loc 1 148 0
 396 000c 7220     		movs	r0, #114
 397 000e FFF7FEFF 		bl	get_freq
 398              	.LVL40:
 399 0012 0446     		mov	r4, r0
 400              	.LVL41:
 149:colorSensor.c ****             freqG = get_freq('g');
 401              		.loc 1 149 0
 402 0014 6720     		movs	r0, #103
 403              	.LVL42:
 404 0016 FFF7FEFF 		bl	get_freq
 405              	.LVL43:
 406 001a 0546     		mov	r5, r0
 407              	.LVL44:
 150:colorSensor.c ****             freqB = get_freq('b');
 408              		.loc 1 150 0
 409 001c 6220     		movs	r0, #98
 410              	.LVL45:
 411 001e FFF7FEFF 		bl	get_freq
 412              	.LVL46:
 413 0022 8246     		mov	r10, r0
 414              	.LVL47:
 151:colorSensor.c ****            
 152:colorSensor.c ****           
 153:colorSensor.c ****             //Nedenstående to sætninger bruges til at se frekvensen på farverne
 154:colorSensor.c ****           // sprintf(str,"Red freq: %u Hz, Green freq: %u, Blue freq: %u, R0: %u, G0: %u, B0: %u \n
 155:colorSensor.c ****            //print(str);
 156:colorSensor.c ****         
ARM GAS  C:\Users\PETERW~1\AppData\Local\Temp\ccAeJmqq.s 			page 11


 157:colorSensor.c ****         
 158:colorSensor.c ****     
 159:colorSensor.c ****             //Nedenstående er koden der skal bruges
 160:colorSensor.c ****             
 161:colorSensor.c ****         
 162:colorSensor.c ****             
 163:colorSensor.c ****              if(freqR>freqR_0*1.1)
 415              		.loc 1 163 0
 416 0024 2046     		mov	r0, r4
 417              	.LVL48:
 418 0026 FFF7FEFF 		bl	__aeabi_ui2d
 419              	.LVL49:
 420 002a 0646     		mov	r6, r0
 421 002c 0F46     		mov	r7, r1
 422 002e 324B     		ldr	r3, .L46+16
 423 0030 1868     		ldr	r0, [r3]
 424 0032 FFF7FEFF 		bl	__aeabi_ui2d
 425              	.LVL50:
 426 0036 2CA3     		adr	r3, .L46
 427 0038 D3E90023 		ldrd	r2, [r3]
 428 003c FFF7FEFF 		bl	__aeabi_dmul
 429              	.LVL51:
 430 0040 0246     		mov	r2, r0
 431 0042 0B46     		mov	r3, r1
 432 0044 3046     		mov	r0, r6
 433 0046 3946     		mov	r1, r7
 434 0048 FFF7FEFF 		bl	__aeabi_dcmpgt
 435              	.LVL52:
 436 004c 20B1     		cbz	r0, .L43
 164:colorSensor.c ****                 {
 165:colorSensor.c ****                     if(freqR>freqG&&freqR>freqB)
 437              		.loc 1 165 0
 438 004e AC42     		cmp	r4, r5
 439 0050 DCD9     		bls	.L33
 440              		.loc 1 165 0 is_stmt 0 discriminator 1
 441 0052 5445     		cmp	r4, r10
 442 0054 DAD9     		bls	.L33
 443 0056 3BE0     		b	.L37
 444              	.L43:
 166:colorSensor.c ****                     {
 167:colorSensor.c ****                         countR ++;
 168:colorSensor.c **** 
 169:colorSensor.c ****                         if(countR==1)
 170:colorSensor.c ****                         {
 171:colorSensor.c ****                             //Indsæt 'driveForward funktion'
 172:colorSensor.c ****                         //sprintf(str,"Red color detected\n\r");
 173:colorSensor.c ****                         //print(str);
 174:colorSensor.c ****                         countR = 0;    
 175:colorSensor.c ****                         return 1;
 176:colorSensor.c ****                         }
 177:colorSensor.c ****                         
 178:colorSensor.c ****                     }
 179:colorSensor.c ****                    
 180:colorSensor.c ****                     else
 181:colorSensor.c ****                     {
 182:colorSensor.c ****                         //Indsæt 'driveLeft funktion'
 183:colorSensor.c ****                         //sprintf(str,"Unknown color in red\n\r");
ARM GAS  C:\Users\PETERW~1\AppData\Local\Temp\ccAeJmqq.s 			page 12


 184:colorSensor.c ****                         //print(str);
 185:colorSensor.c ****                         //return 0;
 186:colorSensor.c ****                     }    
 187:colorSensor.c ****                 }
 188:colorSensor.c **** 
 189:colorSensor.c ****             else if (freqG>freqG_0+1.1)
 445              		.loc 1 189 0 is_stmt 1
 446 0058 2846     		mov	r0, r5
 447 005a FFF7FEFF 		bl	__aeabi_ui2d
 448              	.LVL53:
 449 005e 0646     		mov	r6, r0
 450 0060 0F46     		mov	r7, r1
 451 0062 264B     		ldr	r3, .L46+20
 452 0064 1868     		ldr	r0, [r3]
 453 0066 FFF7FEFF 		bl	__aeabi_ui2d
 454              	.LVL54:
 455 006a 1FA3     		adr	r3, .L46
 456 006c D3E90023 		ldrd	r2, [r3]
 457 0070 FFF7FEFF 		bl	__aeabi_dadd
 458              	.LVL55:
 459 0074 0246     		mov	r2, r0
 460 0076 0B46     		mov	r3, r1
 461 0078 3046     		mov	r0, r6
 462 007a 3946     		mov	r1, r7
 463 007c FFF7FEFF 		bl	__aeabi_dcmpgt
 464              	.LVL56:
 465 0080 48B3     		cbz	r0, .L44
 190:colorSensor.c ****             {    
 191:colorSensor.c ****                 if (freqG>freqB*0.9)
 466              		.loc 1 191 0
 467 0082 5046     		mov	r0, r10
 468 0084 FFF7FEFF 		bl	__aeabi_ui2d
 469              	.LVL57:
 470 0088 8046     		mov	r8, r0
 471 008a 8946     		mov	r9, r1
 472 008c 18A3     		adr	r3, .L46+8
 473 008e D3E90023 		ldrd	r2, [r3]
 474 0092 FFF7FEFF 		bl	__aeabi_dmul
 475              	.LVL58:
 476 0096 0246     		mov	r2, r0
 477 0098 0B46     		mov	r3, r1
 478 009a 3046     		mov	r0, r6
 479 009c 3946     		mov	r1, r7
 480 009e FFF7FEFF 		bl	__aeabi_dcmpgt
 481              	.LVL59:
 482 00a2 D8B9     		cbnz	r0, .L39
 192:colorSensor.c ****                 {
 193:colorSensor.c ****                         countG ++;
 194:colorSensor.c ****                         if(countG==1)
 195:colorSensor.c ****                         {
 196:colorSensor.c ****                             //Indsæt
 197:colorSensor.c ****                         //sprintf(str,"Green color detected\n\r");
 198:colorSensor.c ****                         //print(str);
 199:colorSensor.c ****                         countG = 0;
 200:colorSensor.c ****                         return 2;
 201:colorSensor.c ****                         }
 202:colorSensor.c ****                 }
ARM GAS  C:\Users\PETERW~1\AppData\Local\Temp\ccAeJmqq.s 			page 13


 203:colorSensor.c ****                /* else
 204:colorSensor.c ****                 {
 205:colorSensor.c ****                       //sprintf(str,"Blue color detected\n\r");
 206:colorSensor.c ****                       //print(str);
 207:colorSensor.c ****                         //return 0;
 208:colorSensor.c ****                     return 5;
 209:colorSensor.c ****                 }*/
 210:colorSensor.c ****                 
 211:colorSensor.c ****             else if (freqB>freqB_0*1.1)
 483              		.loc 1 211 0
 484 00a4 164B     		ldr	r3, .L46+24
 485 00a6 D868     		ldr	r0, [r3, #12]
 486 00a8 FFF7FEFF 		bl	__aeabi_ui2d
 487              	.LVL60:
 488 00ac 0EA3     		adr	r3, .L46
 489 00ae D3E90023 		ldrd	r2, [r3]
 490 00b2 FFF7FEFF 		bl	__aeabi_dmul
 491              	.LVL61:
 492 00b6 0246     		mov	r2, r0
 493 00b8 0B46     		mov	r3, r1
 494 00ba 4046     		mov	r0, r8
 495 00bc 4946     		mov	r1, r9
 496 00be FFF7FEFF 		bl	__aeabi_dcmpgt
 497              	.LVL62:
 498 00c2 0028     		cmp	r0, #0
 499 00c4 A2D0     		beq	.L33
 212:colorSensor.c ****             {
 213:colorSensor.c ****             
 214:colorSensor.c ****             
 215:colorSensor.c ****                 if (freqB>freqG)
 500              		.loc 1 215 0
 501 00c6 5545     		cmp	r5, r10
 502 00c8 A0D2     		bcs	.L33
 216:colorSensor.c ****                 {
 217:colorSensor.c ****                         countB ++;
 218:colorSensor.c ****                         if(countB==1)
 219:colorSensor.c ****                         {
 220:colorSensor.c ****                         //sprintf(str,"Blue color detected\n\r");
 221:colorSensor.c ****                         //print(str);
 222:colorSensor.c ****                         countB = 0;
 223:colorSensor.c ****                         return 3;
 503              		.loc 1 223 0
 504 00ca 0320     		movs	r0, #3
 505 00cc BDE8F087 		pop	{r4, r5, r6, r7, r8, r9, r10, pc}
 506              	.LVL63:
 507              	.L37:
 175:colorSensor.c ****                         }
 508              		.loc 1 175 0
 509 00d0 0120     		movs	r0, #1
 510 00d2 BDE8F087 		pop	{r4, r5, r6, r7, r8, r9, r10, pc}
 511              	.LVL64:
 512              	.L44:
 224:colorSensor.c ****                         }
 225:colorSensor.c ****                 }
 226:colorSensor.c ****              }
 227:colorSensor.c ****             }
 228:colorSensor.c ****             else
ARM GAS  C:\Users\PETERW~1\AppData\Local\Temp\ccAeJmqq.s 			page 14


 229:colorSensor.c ****                 {
 230:colorSensor.c ****                     countU ++;
 231:colorSensor.c ****                     if(countU==1)
 232:colorSensor.c ****                      {   //Indsæt 'driveLeft funktion'
 233:colorSensor.c ****                     //sprintf(str,"Unknown color\n\r");
 234:colorSensor.c ****                     //print(str);
 235:colorSensor.c ****                     countU = 0;}
 236:colorSensor.c ****                     return 4;
 513              		.loc 1 236 0
 514 00d6 0420     		movs	r0, #4
 515 00d8 BDE8F087 		pop	{r4, r5, r6, r7, r8, r9, r10, pc}
 516              	.LVL65:
 517              	.L39:
 200:colorSensor.c ****                         }
 518              		.loc 1 200 0
 519 00dc 0220     		movs	r0, #2
 237:colorSensor.c ****                 }
 238:colorSensor.c ****         }  
 239:colorSensor.c ****         
 240:colorSensor.c ****         
 241:colorSensor.c **** 
 242:colorSensor.c ****         return 0;
 243:colorSensor.c **** }
 520              		.loc 1 243 0
 521 00de BDE8F087 		pop	{r4, r5, r6, r7, r8, r9, r10, pc}
 522              	.LVL66:
 523              	.L47:
 524 00e2 00BFAFF3 		.align	3
 524      0080
 525              	.L46:
 526 00e8 9A999999 		.word	-1717986918
 527 00ec 9999F13F 		.word	1072798105
 528 00f0 CDCCCCCC 		.word	-858993459
 529 00f4 CCCCEC3F 		.word	1072483532
 530 00f8 00000000 		.word	freqR_0
 531 00fc 00000000 		.word	freqG_0
 532 0100 00000000 		.word	.LANCHOR0
 533              		.cfi_endproc
 534              	.LFE70:
 535              		.size	getColor, .-getColor
 536              		.global	Counter_cycle
 537              		.global	dataReady
 538              		.global	freqB_0
 539              		.comm	freqG_0,4,4
 540              		.comm	freqR_0,4,4
 541              		.global	freq
 542              		.bss
 543              		.align	2
 544              		.set	.LANCHOR0,. + 0
 545              		.type	freq, %object
 546              		.size	freq, 4
 547              	freq:
 548 0000 00000000 		.space	4
 549              		.type	Counter_cycle, %object
 550              		.size	Counter_cycle, 4
 551              	Counter_cycle:
 552 0004 00000000 		.space	4
ARM GAS  C:\Users\PETERW~1\AppData\Local\Temp\ccAeJmqq.s 			page 15


 553              		.type	dataReady, %object
 554              		.size	dataReady, 4
 555              	dataReady:
 556 0008 00000000 		.space	4
 557              		.type	freqB_0, %object
 558              		.size	freqB_0, 4
 559              	freqB_0:
 560 000c 00000000 		.space	4
 561              		.text
 562              	.Letext0:
 563              		.file 2 "c:\\program files (x86)\\cypress\\psoc creator\\4.3\\psoc creator\\import\\gnu\\arm\\5.4.
 564              		.file 3 "c:\\program files (x86)\\cypress\\psoc creator\\4.3\\psoc creator\\import\\gnu\\arm\\5.4.
 565              		.file 4 "c:\\program files (x86)\\cypress\\psoc creator\\4.3\\psoc creator\\import\\gnu\\arm\\5.4.
 566              		.file 5 "Generated_Source\\PSoC5/core_cm3.h"
 567              		.file 6 "Generated_Source\\PSoC5/Counter.h"
 568              		.file 7 "Generated_Source\\PSoC5/Timer.h"
 569              		.file 8 "Generated_Source\\PSoC5/OE.h"
 570              		.file 9 "Generated_Source\\PSoC5/Timer_INT.h"
 571              		.file 10 "Generated_Source\\PSoC5/Counter_INT.h"
 572              		.file 11 "Generated_Source\\PSoC5/Control_Reg.h"
 573              		.file 12 "Generated_Source\\PSoC5/CyLib.h"
 574              		.file 13 "Generated_Source\\PSoC5/S0.h"
 575              		.file 14 "Generated_Source\\PSoC5/S1.h"
 576              		.file 15 "Generated_Source\\PSoC5/S2.h"
 577              		.file 16 "Generated_Source\\PSoC5/S3.h"