ARM GAS  C:\Users\PETERW~1\AppData\Local\Temp\ccaT6L7K.s 			page 1


   1              		.syntax unified
   2              		.cpu cortex-m3
   3              		.fpu softvfp
   4              		.eabi_attribute 20, 1
   5              		.eabi_attribute 21, 1
   6              		.eabi_attribute 23, 3
   7              		.eabi_attribute 24, 1
   8              		.eabi_attribute 25, 1
   9              		.eabi_attribute 26, 1
  10              		.eabi_attribute 30, 1
  11              		.eabi_attribute 34, 1
  12              		.eabi_attribute 18, 4
  13              		.thumb
  14              		.syntax unified
  15              		.file	"i2cKommunikation.c"
  16              		.text
  17              	.Ltext0:
  18              		.cfi_sections	.debug_frame
  19              		.section	.text.initiere_I2Ckommunikation,"ax",%progbits
  20              		.align	2
  21              		.global	initiere_I2Ckommunikation
  22              		.thumb
  23              		.thumb_func
  24              		.type	initiere_I2Ckommunikation, %function
  25              	initiere_I2Ckommunikation:
  26              	.LFB63:
  27              		.file 1 "i2cKommunikation.c"
   1:i2cKommunikation.c ****  /* All Rights Reserved
   2:i2cKommunikation.c ****  * UNPUBLISHED, LICENSED SOFTWARE.
   3:i2cKommunikation.c ****  *
   4:i2cKommunikation.c ****  * CONFIDENTIAL AND PROPRIETARY INFORMATION
   5:i2cKommunikation.c ****  * WHICH IS THE PROPERTY OF your company.
   6:i2cKommunikation.c ****  *
   7:i2cKommunikation.c ****  * ========================================
   8:i2cKommunikation.c **** */
   9:i2cKommunikation.c **** 
  10:i2cKommunikation.c **** #include "i2cKommunikation.h"
  11:i2cKommunikation.c **** #include "project.h"
  12:i2cKommunikation.c **** 
  13:i2cKommunikation.c **** uint8 byteCnt;   
  14:i2cKommunikation.c **** uint8 wrBuf[8];
  15:i2cKommunikation.c **** uint8 rdBuf[8];
  16:i2cKommunikation.c **** uint8 i;
  17:i2cKommunikation.c **** 
  18:i2cKommunikation.c **** void initiere_I2Ckommunikation()
  19:i2cKommunikation.c **** {
  28              		.loc 1 19 0
  29              		.cfi_startproc
  30              		@ args = 0, pretend = 0, frame = 0
  31              		@ frame_needed = 0, uses_anonymous_args = 0
  32 0000 08B5     		push	{r3, lr}
  33              		.cfi_def_cfa_offset 8
  34              		.cfi_offset 3, -8
  35              		.cfi_offset 14, -4
  20:i2cKommunikation.c ****     I2C_SlaveInitWriteBuf((uint8 *) wrBuf, 8);
  36              		.loc 1 20 0
  37 0002 0821     		movs	r1, #8
ARM GAS  C:\Users\PETERW~1\AppData\Local\Temp\ccaT6L7K.s 			page 2


  38 0004 0248     		ldr	r0, .L3
  39 0006 FFF7FEFF 		bl	I2C_SlaveInitWriteBuf
  40              	.LVL0:
  21:i2cKommunikation.c ****     I2C_Start();
  41              		.loc 1 21 0
  42 000a FFF7FEFF 		bl	I2C_Start
  43              	.LVL1:
  44 000e 08BD     		pop	{r3, pc}
  45              	.L4:
  46              		.align	2
  47              	.L3:
  48 0010 00000000 		.word	wrBuf
  49              		.cfi_endproc
  50              	.LFE63:
  51              		.size	initiere_I2Ckommunikation, .-initiere_I2Ckommunikation
  52              		.section	.text.I2C_Kommunikation,"ax",%progbits
  53              		.align	2
  54              		.global	I2C_Kommunikation
  55              		.thumb
  56              		.thumb_func
  57              		.type	I2C_Kommunikation, %function
  58              	I2C_Kommunikation:
  59              	.LFB64:
  22:i2cKommunikation.c **** }
  23:i2cKommunikation.c **** 
  24:i2cKommunikation.c **** char I2C_Kommunikation()
  25:i2cKommunikation.c **** {
  60              		.loc 1 25 0
  61              		.cfi_startproc
  62              		@ args = 0, pretend = 0, frame = 0
  63              		@ frame_needed = 0, uses_anonymous_args = 0
  64 0000 08B5     		push	{r3, lr}
  65              		.cfi_def_cfa_offset 8
  66              		.cfi_offset 3, -8
  67              		.cfi_offset 14, -4
  26:i2cKommunikation.c ****       if(0u != (I2C_SlaveStatus() & I2C_SSTAT_WR_CMPLT)) 
  68              		.loc 1 26 0
  69 0002 FFF7FEFF 		bl	I2C_SlaveStatus
  70              	.LVL2:
  71 0006 10F0100F 		tst	r0, #16
  72 000a 38D0     		beq	.L16
  27:i2cKommunikation.c ****          {
  28:i2cKommunikation.c ****             byteCnt = I2C_SlaveGetWriteBufSize(); 
  73              		.loc 1 28 0
  74 000c FFF7FEFF 		bl	I2C_SlaveGetWriteBufSize
  75              	.LVL3:
  76 0010 1F4B     		ldr	r3, .L24
  77 0012 1870     		strb	r0, [r3]
  29:i2cKommunikation.c ****             I2C_SlaveClearWriteStatus(); 
  78              		.loc 1 29 0
  79 0014 FFF7FEFF 		bl	I2C_SlaveClearWriteStatus
  80              	.LVL4:
  30:i2cKommunikation.c ****             
  31:i2cKommunikation.c ****             switch(wrBuf[0])
  81              		.loc 1 31 0
  82 0018 1E4B     		ldr	r3, .L24+4
  83 001a 1B78     		ldrb	r3, [r3]	@ zero_extendqisi2
ARM GAS  C:\Users\PETERW~1\AppData\Local\Temp\ccaT6L7K.s 			page 3


  84 001c 012B     		cmp	r3, #1
  85 001e 30D1     		bne	.L20
  32:i2cKommunikation.c ****             {
  33:i2cKommunikation.c ****                 case 0b00000001:
  34:i2cKommunikation.c ****                 {
  35:i2cKommunikation.c ****                     switch(wrBuf[1])
  86              		.loc 1 35 0
  87 0020 1C4B     		ldr	r3, .L24+4
  88 0022 5B78     		ldrb	r3, [r3, #1]	@ zero_extendqisi2
  89 0024 012B     		cmp	r3, #1
  90 0026 02D0     		beq	.L8
  91 0028 022B     		cmp	r3, #2
  92 002a 14D0     		beq	.L9
  93 002c 2BE0     		b	.L21
  94              	.L8:
  36:i2cKommunikation.c ****                     {
  37:i2cKommunikation.c ****                         case 0b00000001:
  38:i2cKommunikation.c ****                         {
  39:i2cKommunikation.c ****                             switch (wrBuf[2])
  95              		.loc 1 39 0
  96 002e 194B     		ldr	r3, .L24+4
  97 0030 9B78     		ldrb	r3, [r3, #2]	@ zero_extendqisi2
  98 0032 022B     		cmp	r3, #2
  99 0034 07D0     		beq	.L10
 100 0036 032B     		cmp	r3, #3
 101 0038 09D0     		beq	.L11
 102 003a 012B     		cmp	r3, #1
 103 003c 0BD1     		bne	.L9
  40:i2cKommunikation.c ****                             {
  41:i2cKommunikation.c ****                                 case 0b00000001:
  42:i2cKommunikation.c ****                                 {
  43:i2cKommunikation.c ****                                     I2C_SlaveClearWriteBuf();
 104              		.loc 1 43 0
 105 003e FFF7FEFF 		bl	I2C_SlaveClearWriteBuf
 106              	.LVL5:
  44:i2cKommunikation.c ****                                     return 1;
 107              		.loc 1 44 0
 108 0042 0120     		movs	r0, #1
 109 0044 08BD     		pop	{r3, pc}
 110              	.L10:
  45:i2cKommunikation.c ****                                     break;
  46:i2cKommunikation.c ****                                 }
  47:i2cKommunikation.c ****                                 case 0b00000010:
  48:i2cKommunikation.c ****                                 {
  49:i2cKommunikation.c ****                                     I2C_SlaveClearWriteBuf();
 111              		.loc 1 49 0
 112 0046 FFF7FEFF 		bl	I2C_SlaveClearWriteBuf
 113              	.LVL6:
  50:i2cKommunikation.c ****                                     return 2;
 114              		.loc 1 50 0
 115 004a 0220     		movs	r0, #2
 116 004c 08BD     		pop	{r3, pc}
 117              	.L11:
  51:i2cKommunikation.c ****                                     break;
  52:i2cKommunikation.c ****                                 }
  53:i2cKommunikation.c ****                                 case 0b00000011:
  54:i2cKommunikation.c ****                                 {
ARM GAS  C:\Users\PETERW~1\AppData\Local\Temp\ccaT6L7K.s 			page 4


  55:i2cKommunikation.c ****                                     I2C_SlaveClearWriteBuf();
 118              		.loc 1 55 0
 119 004e FFF7FEFF 		bl	I2C_SlaveClearWriteBuf
 120              	.LVL7:
  56:i2cKommunikation.c ****                                     return 3;
 121              		.loc 1 56 0
 122 0052 0320     		movs	r0, #3
 123 0054 08BD     		pop	{r3, pc}
 124              	.L9:
  57:i2cKommunikation.c ****                                     break;
  58:i2cKommunikation.c ****                                    
  59:i2cKommunikation.c ****                                 }
  60:i2cKommunikation.c ****                                     default:
  61:i2cKommunikation.c ****                                     break;
  62:i2cKommunikation.c ****                             }
  63:i2cKommunikation.c ****                         }
  64:i2cKommunikation.c ****                         case 0b00000010:
  65:i2cKommunikation.c ****                         {
  66:i2cKommunikation.c ****                             switch(wrBuf[2])
 125              		.loc 1 66 0
 126 0056 0F4B     		ldr	r3, .L24+4
 127 0058 9B78     		ldrb	r3, [r3, #2]	@ zero_extendqisi2
 128 005a 022B     		cmp	r3, #2
 129 005c 07D0     		beq	.L13
 130 005e 032B     		cmp	r3, #3
 131 0060 09D0     		beq	.L14
 132 0062 012B     		cmp	r3, #1
 133 0064 11D1     		bne	.L22
  67:i2cKommunikation.c ****                             {
  68:i2cKommunikation.c ****                                 case 0b00000001:
  69:i2cKommunikation.c ****                                 {
  70:i2cKommunikation.c ****                                     I2C_SlaveClearWriteBuf();
 134              		.loc 1 70 0
 135 0066 FFF7FEFF 		bl	I2C_SlaveClearWriteBuf
 136              	.LVL8:
  71:i2cKommunikation.c ****                                     return 4;
 137              		.loc 1 71 0
 138 006a 0420     		movs	r0, #4
 139 006c 08BD     		pop	{r3, pc}
 140              	.L13:
  72:i2cKommunikation.c ****                                     break;
  73:i2cKommunikation.c ****                                 }
  74:i2cKommunikation.c ****                                 case 0b00000010:
  75:i2cKommunikation.c ****                                 {
  76:i2cKommunikation.c ****                                     I2C_SlaveClearWriteBuf();
 141              		.loc 1 76 0
 142 006e FFF7FEFF 		bl	I2C_SlaveClearWriteBuf
 143              	.LVL9:
  77:i2cKommunikation.c ****                                     return 5;
 144              		.loc 1 77 0
 145 0072 0520     		movs	r0, #5
 146 0074 08BD     		pop	{r3, pc}
 147              	.L14:
  78:i2cKommunikation.c ****                                     break;
  79:i2cKommunikation.c ****                                 }
  80:i2cKommunikation.c ****                                 case 0b00000011:
  81:i2cKommunikation.c ****                                 {
ARM GAS  C:\Users\PETERW~1\AppData\Local\Temp\ccaT6L7K.s 			page 5


  82:i2cKommunikation.c ****                                     I2C_SlaveClearWriteBuf();
 148              		.loc 1 82 0
 149 0076 FFF7FEFF 		bl	I2C_SlaveClearWriteBuf
 150              	.LVL10:
  83:i2cKommunikation.c ****                                     return 6;
 151              		.loc 1 83 0
 152 007a 0620     		movs	r0, #6
 153 007c 08BD     		pop	{r3, pc}
 154              	.L16:
  84:i2cKommunikation.c ****                                     break;
  85:i2cKommunikation.c ****                                 }
  86:i2cKommunikation.c ****                                     default:
  87:i2cKommunikation.c ****                                     break;
  88:i2cKommunikation.c ****                             }
  89:i2cKommunikation.c ****                         }
  90:i2cKommunikation.c ****                         default:
  91:i2cKommunikation.c ****                         break;
  92:i2cKommunikation.c ****                     }
  93:i2cKommunikation.c ****                 }
  94:i2cKommunikation.c ****                 default:
  95:i2cKommunikation.c ****                 break;
  96:i2cKommunikation.c ****              }
  97:i2cKommunikation.c ****          }
  98:i2cKommunikation.c ****     return 0;
 155              		.loc 1 98 0
 156 007e 0020     		movs	r0, #0
 157 0080 08BD     		pop	{r3, pc}
 158              	.L20:
 159 0082 0020     		movs	r0, #0
 160 0084 08BD     		pop	{r3, pc}
 161              	.L21:
 162 0086 0020     		movs	r0, #0
 163 0088 08BD     		pop	{r3, pc}
 164              	.L22:
 165 008a 0020     		movs	r0, #0
  99:i2cKommunikation.c **** }
 166              		.loc 1 99 0
 167 008c 08BD     		pop	{r3, pc}
 168              	.L25:
 169 008e 00BF     		.align	2
 170              	.L24:
 171 0090 00000000 		.word	byteCnt
 172 0094 00000000 		.word	wrBuf
 173              		.cfi_endproc
 174              	.LFE64:
 175              		.size	I2C_Kommunikation, .-I2C_Kommunikation
 176              		.comm	i,1,1
 177              		.comm	rdBuf,8,4
 178              		.comm	wrBuf,8,4
 179              		.comm	byteCnt,1,1
 180              		.text
 181              	.Letext0:
 182              		.file 2 "c:\\program files (x86)\\cypress\\psoc creator\\4.3\\psoc creator\\import\\gnu\\arm\\5.4.
 183              		.file 3 "c:\\program files (x86)\\cypress\\psoc creator\\4.3\\psoc creator\\import\\gnu\\arm\\5.4.
 184              		.file 4 "Generated_Source\\PSoC5/cytypes.h"
 185              		.file 5 "Generated_Source\\PSoC5/core_cm3.h"
 186              		.file 6 "Generated_Source\\PSoC5/I2C.h"
ARM GAS  C:\Users\PETERW~1\AppData\Local\Temp\ccaT6L7K.s 			page 6

