ARM GAS  C:\Users\PETERW~1\AppData\Local\Temp\ccVpwXsh.s 			page 1


   1              		.syntax unified
   2              		.cpu cortex-m3
   3              		.fpu softvfp
   4              		.eabi_attribute 20, 1
   5              		.eabi_attribute 21, 1
   6              		.eabi_attribute 23, 3
   7              		.eabi_attribute 24, 1
   8              		.eabi_attribute 25, 1
   9              		.eabi_attribute 26, 1
  10              		.eabi_attribute 30, 1
  11              		.eabi_attribute 34, 1
  12              		.eabi_attribute 18, 4
  13              		.thumb
  14              		.syntax unified
  15              		.file	"main.c"
  16              		.text
  17              	.Ltext0:
  18              		.cfi_sections	.debug_frame
  19              		.global	__aeabi_f2d
  20              		.global	__aeabi_dcmplt
  21              		.section	.text.beertressWorkWork,"ax",%progbits
  22              		.align	2
  23              		.global	beertressWorkWork
  24              		.thumb
  25              		.thumb_func
  26              		.type	beertressWorkWork, %function
  27              	beertressWorkWork:
  28              	.LFB64:
  29              		.file 1 "main.c"
   1:main.c        **** /* ========================================
   2:main.c        ****  *
   3:main.c        ****  * Copyright YOUR COMPANY, THE YEAR
   4:main.c        ****  * All Rights Reserved
   5:main.c        ****  * UNPUBLISHED, LICENSED SOFTWARE.
   6:main.c        ****  *
   7:main.c        ****  * CONFIDENTIAL AND PROPRIETARY INFORMATION
   8:main.c        ****  * WHICH IS THE PROPERTY OF your company.
   9:main.c        ****  *
  10:main.c        ****  * ========================================
  11:main.c        **** */
  12:main.c        **** //#include "I2Ckommunikation.h"
  13:main.c        **** #include "project.h"
  14:main.c        **** 
  15:main.c        **** 
  16:main.c        **** // Includes af bibloteker
  17:main.c        **** #include "motorStyring.h"
  18:main.c        **** #include "Scale.h"
  19:main.c        **** #include "colorSensor.h"
  20:main.c        **** #include "Afstandssensor.h"
  21:main.c        **** #include "i2cKommunikation.h"
  22:main.c        **** 
  23:main.c        **** int orderReceived;
  24:main.c        **** int distance;
  25:main.c        **** uint8 rdBuf[8] = {0};
  26:main.c        **** 
  27:main.c        **** 
  28:main.c        **** void handleOrderReceived(int orderReceived);
ARM GAS  C:\Users\PETERW~1\AppData\Local\Temp\ccVpwXsh.s 			page 2


  29:main.c        **** void beertressWorkWork(int type, int table, int amount);
  30:main.c        **** 
  31:main.c        **** int main(void)
  32:main.c        **** {
  33:main.c        ****     CyGlobalIntEnable; /* Enable global interrupts. */
  34:main.c        ****    
  35:main.c        ****     
  36:main.c        ****     
  37:main.c        ****     //inits
  38:main.c        ****     initMotor(); //Motor
  39:main.c        ****     ADC_init();  //Vægtsensor
  40:main.c        ****     init_start(); //Colorsensor
  41:main.c        ****     initDistSens(); //Afstandssensor
  42:main.c        ****     initiere_I2Ckommunikation(); //I2C
  43:main.c        ****     
  44:main.c        ****     CyDelay(3000);
  45:main.c        ****     standardColor();
  46:main.c        **** 
  47:main.c        ****         for(;;)
  48:main.c        ****        {
  49:main.c        ****         int i = I2C_Kommunikation();
  50:main.c        ****         handleOrderReceived(i);   
  51:main.c        ****        }
  52:main.c        **** }
  53:main.c        **** 
  54:main.c        **** void beertressWorkWork(int type, int table, int amount)
  55:main.c        **** {
  30              		.loc 1 55 0
  31              		.cfi_startproc
  32              		@ args = 0, pretend = 0, frame = 0
  33              		@ frame_needed = 0, uses_anonymous_args = 0
  34              	.LVL0:
  35 0000 70B5     		push	{r4, r5, r6, lr}
  36              		.cfi_def_cfa_offset 16
  37              		.cfi_offset 4, -16
  38              		.cfi_offset 5, -12
  39              		.cfi_offset 6, -8
  40              		.cfi_offset 14, -4
  41 0002 0446     		mov	r4, r0
  42 0004 0D46     		mov	r5, r1
  56:main.c        ****     I2C_SlaveInitReadBuf((uint8 *) rdBuf, 8);
  43              		.loc 1 56 0
  44 0006 0821     		movs	r1, #8
  45              	.LVL1:
  46 0008 3B48     		ldr	r0, .L22+8
  47              	.LVL2:
  48 000a FFF7FEFF 		bl	I2C_SlaveInitReadBuf
  49              	.LVL3:
  57:main.c        ****     switch(type)
  50              		.loc 1 57 0
  51 000e 012C     		cmp	r4, #1
  52 0010 6DD1     		bne	.L1
  53              	.LVL4:
  54              	.LBB2:
  58:main.c        ****     {
  59:main.c        ****         case 1 :
  60:main.c        ****         {
ARM GAS  C:\Users\PETERW~1\AppData\Local\Temp\ccVpwXsh.s 			page 3


  61:main.c        ****             int tableCounter = 0;
  62:main.c        ****             driveForward();
  55              		.loc 1 62 0
  56 0012 FFF7FEFF 		bl	driveForward
  57              	.LVL5:
  63:main.c        ****             CyDelay(1000);
  58              		.loc 1 63 0
  59 0016 4FF47A70 		mov	r0, #1000
  60 001a FFF7FEFF 		bl	CyDelay
  61              	.LVL6:
  61:main.c        ****             driveForward();
  62              		.loc 1 61 0
  63 001e 0024     		movs	r4, #0
  64              	.LVL7:
  65              	.L4:
  66              	.LBB3:
  64:main.c        ****             for(;;)
  65:main.c        ****             {
  66:main.c        ****                 int color = getColor();
  67              		.loc 1 66 0
  68 0020 FFF7FEFF 		bl	getColor
  69              	.LVL8:
  70 0024 0646     		mov	r6, r0
  71              	.LVL9:
  67:main.c        ****                 
  68:main.c        ****                 if(tableCounter == table)
  72              		.loc 1 68 0
  73 0026 A542     		cmp	r5, r4
  74 0028 07D1     		bne	.L5
  69:main.c        ****                 {
  70:main.c        ****                     driveStop();
  75              		.loc 1 70 0
  76 002a FFF7FEFF 		bl	driveStop
  77              	.LVL10:
  71:main.c        ****                     CyDelay(1000);
  78              		.loc 1 71 0
  79 002e 4FF47A70 		mov	r0, #1000
  80 0032 FFF7FEFF 		bl	CyDelay
  81              	.LVL11:
  72:main.c        ****                     
  73:main.c        **** //                    int antal = amount*0.346;
  74:main.c        **** //                    int vaegt = ADC_Measure();
  75:main.c        **** //                    while(vaegt >= 0.246)
  76:main.c        **** //                    {
  77:main.c        **** //                    }
  78:main.c        **** //                    CyDelay(1000);
  79:main.c        ****                     table = 0;
  82              		.loc 1 79 0
  83 0036 0025     		movs	r5, #0
  84 0038 2DE0     		b	.L6
  85              	.LVL12:
  86              	.L5:
  80:main.c        ****                 }
  81:main.c        ****                 else if(tableCounter == 3)
  87              		.loc 1 81 0
  88 003a 032C     		cmp	r4, #3
  89 003c 2BD1     		bne	.L6
ARM GAS  C:\Users\PETERW~1\AppData\Local\Temp\ccVpwXsh.s 			page 4


  82:main.c        ****                 {
  83:main.c        ****                     driveStop();
  90              		.loc 1 83 0
  91 003e FFF7FEFF 		bl	driveStop
  92              	.LVL13:
  84:main.c        ****                     CyDelay(3000);
  93              		.loc 1 84 0
  94 0042 40F6B830 		movw	r0, #3000
  95 0046 FFF7FEFF 		bl	CyDelay
  96              	.LVL14:
  85:main.c        ****                     Done_Write(1); // Order done
  97              		.loc 1 85 0
  98 004a 0120     		movs	r0, #1
  99 004c FFF7FEFF 		bl	Done_Write
 100              	.LVL15:
  86:main.c        ****                     CyDelay(500);
 101              		.loc 1 86 0
 102 0050 4FF4FA70 		mov	r0, #500
 103 0054 FFF7FEFF 		bl	CyDelay
 104              	.LVL16:
  87:main.c        ****                     Done_Write(0);
 105              		.loc 1 87 0
 106 0058 0020     		movs	r0, #0
 107 005a FFF7FEFF 		bl	Done_Write
 108              	.LVL17:
  88:main.c        ****                     while(ADC_Measure() < 0.346) // Empty
 109              		.loc 1 88 0
 110 005e 02E0     		b	.L7
 111              	.L8:
  89:main.c        ****                     {
  90:main.c        ****                         rdBuf[0] = 0b00000001;
 112              		.loc 1 90 0
 113 0060 0122     		movs	r2, #1
 114 0062 254B     		ldr	r3, .L22+8
 115 0064 1A70     		strb	r2, [r3]
 116              	.L7:
  88:main.c        ****                     while(ADC_Measure() < 0.346) // Empty
 117              		.loc 1 88 0
 118 0066 FFF7FEFF 		bl	ADC_Measure
 119              	.LVL18:
 120 006a FFF7FEFF 		bl	__aeabi_f2d
 121              	.LVL19:
 122 006e 20A3     		adr	r3, .L22
 123 0070 D3E90023 		ldrd	r2, [r3]
 124 0074 FFF7FEFF 		bl	__aeabi_dcmplt
 125              	.LVL20:
 126 0078 0028     		cmp	r0, #0
 127 007a F1D1     		bne	.L8
  91:main.c        ****                     }
  92:main.c        ****                     rdBuf[0] = 0b00000000;
 128              		.loc 1 92 0
 129 007c 0022     		movs	r2, #0
 130 007e 1E4B     		ldr	r3, .L22+8
 131 0080 1A70     		strb	r2, [r3]
  93:main.c        ****                     // I2C_SlaveClearReadBuf();
  94:main.c        ****                     return;
 132              		.loc 1 94 0
ARM GAS  C:\Users\PETERW~1\AppData\Local\Temp\ccVpwXsh.s 			page 5


 133 0082 70BD     		pop	{r4, r5, r6, pc}
 134              	.LVL21:
 135              	.L9:
  95:main.c        ****                 }
  96:main.c        ****                     
  97:main.c        ****                  while(color == 1) // roed
  98:main.c        ****                  {
  99:main.c        ****                     while(distance < 30)
 100:main.c        ****                     {
 101:main.c        ****                     driveStop();
 136              		.loc 1 101 0
 137 0084 FFF7FEFF 		bl	driveStop
 138              	.LVL22:
 139              	.L11:
  99:main.c        ****                     {
 140              		.loc 1 99 0
 141 0088 1C4B     		ldr	r3, .L22+12
 142 008a 1B68     		ldr	r3, [r3]
 143 008c 1D2B     		cmp	r3, #29
 144 008e F9DD     		ble	.L9
 102:main.c        ****                     }
 103:main.c        ****                     driveForward();
 145              		.loc 1 103 0
 146 0090 FFF7FEFF 		bl	driveForward
 147              	.LVL23:
 104:main.c        ****                     break;
 148              		.loc 1 104 0
 149 0094 10E0     		b	.L10
 150              	.LVL24:
 151              	.L6:
  97:main.c        ****                  {
 152              		.loc 1 97 0
 153 0096 012E     		cmp	r6, #1
 154 0098 0ED1     		bne	.L10
 155 009a F5E7     		b	.L11
 156              	.L12:
 105:main.c        ****                  }
 106:main.c        ****                   while(color == 2) // groen
 107:main.c        ****                  {
 108:main.c        ****                     while(distance < 30)
 109:main.c        ****                      {
 110:main.c        ****                     driveStop();
 157              		.loc 1 110 0
 158 009c FFF7FEFF 		bl	driveStop
 159              	.LVL25:
 160              	.L14:
 108:main.c        ****                      {
 161              		.loc 1 108 0
 162 00a0 164B     		ldr	r3, .L22+12
 163 00a2 1B68     		ldr	r3, [r3]
 164 00a4 1D2B     		cmp	r3, #29
 165 00a6 F9DD     		ble	.L12
 111:main.c        ****                      }
 112:main.c        ****                      driveForward();
 166              		.loc 1 112 0
 167 00a8 FFF7FEFF 		bl	driveForward
 168              	.LVL26:
ARM GAS  C:\Users\PETERW~1\AppData\Local\Temp\ccVpwXsh.s 			page 6


 113:main.c        ****                      tableCounter++;
 169              		.loc 1 113 0
 170 00ac 0134     		adds	r4, r4, #1
 171              	.LVL27:
 114:main.c        ****                      CyDelay(500);
 172              		.loc 1 114 0
 173 00ae 4FF4FA70 		mov	r0, #500
 174 00b2 FFF7FEFF 		bl	CyDelay
 175              	.LVL28:
 115:main.c        ****                      break;
 176              		.loc 1 115 0
 177 00b6 0BE0     		b	.L13
 178              	.L10:
 106:main.c        ****                  {
 179              		.loc 1 106 0
 180 00b8 022E     		cmp	r6, #2
 181 00ba 09D1     		bne	.L13
 182 00bc F0E7     		b	.L14
 183              	.L15:
 116:main.c        ****                  }
 117:main.c        ****                  while(color == 3) // blaa
 118:main.c        ****                  {
 119:main.c        ****                     while(distance < 30)
 120:main.c        ****                      {
 121:main.c        ****                     driveStop();
 184              		.loc 1 121 0
 185 00be FFF7FEFF 		bl	driveStop
 186              	.LVL29:
 187              	.L17:
 119:main.c        ****                      {
 188              		.loc 1 119 0
 189 00c2 0E4B     		ldr	r3, .L22+12
 190 00c4 1B68     		ldr	r3, [r3]
 191 00c6 1D2B     		cmp	r3, #29
 192 00c8 F9DD     		ble	.L15
 122:main.c        ****                      }
 123:main.c        ****                      driveLeft();
 193              		.loc 1 123 0
 194 00ca FFF7FEFF 		bl	driveLeft
 195              	.LVL30:
 124:main.c        ****                      break;
 196              		.loc 1 124 0
 197 00ce 0BE0     		b	.L16
 198              	.L13:
 117:main.c        ****                  {
 199              		.loc 1 117 0
 200 00d0 032E     		cmp	r6, #3
 201 00d2 09D1     		bne	.L16
 202 00d4 F5E7     		b	.L17
 203              	.L18:
 125:main.c        ****                  }
 126:main.c        ****                  while(color == 4) // unknown
 127:main.c        ****                  {
 128:main.c        ****                     while(distance < 30)
 129:main.c        ****                      {
 130:main.c        ****                     driveStop();
 204              		.loc 1 130 0
ARM GAS  C:\Users\PETERW~1\AppData\Local\Temp\ccVpwXsh.s 			page 7


 205 00d6 FFF7FEFF 		bl	driveStop
 206              	.LVL31:
 207              	.L20:
 128:main.c        ****                      {
 208              		.loc 1 128 0
 209 00da 084B     		ldr	r3, .L22+12
 210 00dc 1B68     		ldr	r3, [r3]
 211 00de 1D2B     		cmp	r3, #29
 212 00e0 F9DD     		ble	.L18
 131:main.c        ****                      }
 132:main.c        ****                      driveRight();
 213              		.loc 1 132 0
 214 00e2 FFF7FEFF 		bl	driveRight
 215              	.LVL32:
 133:main.c        ****                      break;
 216              		.loc 1 133 0
 217 00e6 9BE7     		b	.L4
 218              	.L16:
 126:main.c        ****                  {
 219              		.loc 1 126 0
 220 00e8 042E     		cmp	r6, #4
 221 00ea 99D1     		bne	.L4
 222 00ec F5E7     		b	.L20
 223              	.LVL33:
 224              	.L1:
 225 00ee 70BD     		pop	{r4, r5, r6, pc}
 226              	.LVL34:
 227              	.L23:
 228              		.align	3
 229              	.L22:
 230 00f0 BE9F1A2F 		.word	790273982
 231 00f4 DD24D63F 		.word	1070998749
 232 00f8 00000000 		.word	.LANCHOR0
 233 00fc 00000000 		.word	distance
 234              	.LBE3:
 235              	.LBE2:
 236              		.cfi_endproc
 237              	.LFE64:
 238              		.size	beertressWorkWork, .-beertressWorkWork
 239              		.section	.text.handleOrderReceived,"ax",%progbits
 240              		.align	2
 241              		.global	handleOrderReceived
 242              		.thumb
 243              		.thumb_func
 244              		.type	handleOrderReceived, %function
 245              	handleOrderReceived:
 246              	.LFB65:
 134:main.c        ****                  }
 135:main.c        ****             }
 136:main.c        ****            
 137:main.c        ****         }
 138:main.c        ****         default :
 139:main.c        ****         break;
 140:main.c        ****     }
 141:main.c        **** }
 142:main.c        **** void handleOrderReceived(int orderReceived)
 143:main.c        **** {
ARM GAS  C:\Users\PETERW~1\AppData\Local\Temp\ccVpwXsh.s 			page 8


 247              		.loc 1 143 0
 248              		.cfi_startproc
 249              		@ args = 0, pretend = 0, frame = 0
 250              		@ frame_needed = 0, uses_anonymous_args = 0
 251              	.LVL35:
 252 0000 08B5     		push	{r3, lr}
 253              		.cfi_def_cfa_offset 8
 254              		.cfi_offset 3, -8
 255              		.cfi_offset 14, -4
 144:main.c        ****     switch(orderReceived)
 256              		.loc 1 144 0
 257 0002 0138     		subs	r0, r0, #1
 258              	.LVL36:
 259 0004 0528     		cmp	r0, #5
 260 0006 27D8     		bhi	.L24
 261 0008 DFE800F0 		tbb	[pc, r0]
 262              	.L27:
 263 000c 03       		.byte	(.L26-.L27)/2
 264 000d 09       		.byte	(.L28-.L27)/2
 265 000e 0F       		.byte	(.L29-.L27)/2
 266 000f 15       		.byte	(.L30-.L27)/2
 267 0010 1B       		.byte	(.L31-.L27)/2
 268 0011 21       		.byte	(.L32-.L27)/2
 269              		.p2align 1
 270              	.L26:
 145:main.c        ****     {
 146:main.c        ****         
 147:main.c        ****         case 1 :
 148:main.c        ****         {
 149:main.c        ****             beertressWorkWork(1,1,1);
 271              		.loc 1 149 0
 272 0012 0122     		movs	r2, #1
 273 0014 1146     		mov	r1, r2
 274 0016 1046     		mov	r0, r2
 275              	.LVL37:
 276 0018 FFF7FEFF 		bl	beertressWorkWork
 277              	.LVL38:
 150:main.c        ****             break;
 278              		.loc 1 150 0
 279 001c 08BD     		pop	{r3, pc}
 280              	.L28:
 151:main.c        ****         }
 152:main.c        ****         case 2 :
 153:main.c        ****         {
 154:main.c        ****             beertressWorkWork(1,1,2);
 281              		.loc 1 154 0
 282 001e 0222     		movs	r2, #2
 283 0020 0121     		movs	r1, #1
 284 0022 0846     		mov	r0, r1
 285 0024 FFF7FEFF 		bl	beertressWorkWork
 286              	.LVL39:
 155:main.c        ****             break;
 287              		.loc 1 155 0
 288 0028 08BD     		pop	{r3, pc}
 289              	.L29:
 156:main.c        ****         }
 157:main.c        ****         
ARM GAS  C:\Users\PETERW~1\AppData\Local\Temp\ccVpwXsh.s 			page 9


 158:main.c        ****          case 3 :
 159:main.c        ****         {
 160:main.c        ****             beertressWorkWork(1,1,3);
 290              		.loc 1 160 0
 291 002a 0322     		movs	r2, #3
 292 002c 0121     		movs	r1, #1
 293 002e 0846     		mov	r0, r1
 294 0030 FFF7FEFF 		bl	beertressWorkWork
 295              	.LVL40:
 161:main.c        ****             break;
 296              		.loc 1 161 0
 297 0034 08BD     		pop	{r3, pc}
 298              	.L30:
 162:main.c        ****         }
 163:main.c        ****          case 4 :
 164:main.c        ****         {
 165:main.c        ****             beertressWorkWork(1,2,1);
 299              		.loc 1 165 0
 300 0036 0122     		movs	r2, #1
 301 0038 0221     		movs	r1, #2
 302 003a 1046     		mov	r0, r2
 303 003c FFF7FEFF 		bl	beertressWorkWork
 304              	.LVL41:
 166:main.c        ****             break;
 305              		.loc 1 166 0
 306 0040 08BD     		pop	{r3, pc}
 307              	.L31:
 167:main.c        ****         }
 168:main.c        ****          case 5 :
 169:main.c        ****         {
 170:main.c        ****             beertressWorkWork(1,2,2);
 308              		.loc 1 170 0
 309 0042 0222     		movs	r2, #2
 310 0044 1146     		mov	r1, r2
 311 0046 0120     		movs	r0, #1
 312 0048 FFF7FEFF 		bl	beertressWorkWork
 313              	.LVL42:
 171:main.c        ****             break;
 314              		.loc 1 171 0
 315 004c 08BD     		pop	{r3, pc}
 316              	.L32:
 172:main.c        ****         }
 173:main.c        ****          case 6 :
 174:main.c        ****         {
 175:main.c        ****             beertressWorkWork(1,2,3);
 317              		.loc 1 175 0
 318 004e 0322     		movs	r2, #3
 319 0050 0221     		movs	r1, #2
 320 0052 0120     		movs	r0, #1
 321 0054 FFF7FEFF 		bl	beertressWorkWork
 322              	.LVL43:
 323              	.L24:
 324 0058 08BD     		pop	{r3, pc}
 325              		.cfi_endproc
 326              	.LFE65:
 327              		.size	handleOrderReceived, .-handleOrderReceived
 328 005a 00BF     		.section	.text.main,"ax",%progbits
ARM GAS  C:\Users\PETERW~1\AppData\Local\Temp\ccVpwXsh.s 			page 10


 329              		.align	2
 330              		.global	main
 331              		.thumb
 332              		.thumb_func
 333              		.type	main, %function
 334              	main:
 335              	.LFB63:
  32:main.c        ****     CyGlobalIntEnable; /* Enable global interrupts. */
 336              		.loc 1 32 0
 337              		.cfi_startproc
 338              		@ args = 0, pretend = 0, frame = 0
 339              		@ frame_needed = 0, uses_anonymous_args = 0
 340 0000 08B5     		push	{r3, lr}
 341              		.cfi_def_cfa_offset 8
 342              		.cfi_offset 3, -8
 343              		.cfi_offset 14, -4
  33:main.c        ****    
 344              		.loc 1 33 0
 345              		.syntax unified
 346              	@ 33 "main.c" 1
 347 0002 62B6     		CPSIE   i
 348              	@ 0 "" 2
  38:main.c        ****     ADC_init();  //Vægtsensor
 349              		.loc 1 38 0
 350              		.thumb
 351              		.syntax unified
 352 0004 FFF7FEFF 		bl	initMotor
 353              	.LVL44:
  39:main.c        ****     init_start(); //Colorsensor
 354              		.loc 1 39 0
 355 0008 FFF7FEFF 		bl	ADC_init
 356              	.LVL45:
  40:main.c        ****     initDistSens(); //Afstandssensor
 357              		.loc 1 40 0
 358 000c FFF7FEFF 		bl	init_start
 359              	.LVL46:
  41:main.c        ****     initiere_I2Ckommunikation(); //I2C
 360              		.loc 1 41 0
 361 0010 FFF7FEFF 		bl	initDistSens
 362              	.LVL47:
  42:main.c        ****     
 363              		.loc 1 42 0
 364 0014 FFF7FEFF 		bl	initiere_I2Ckommunikation
 365              	.LVL48:
  44:main.c        ****     standardColor();
 366              		.loc 1 44 0
 367 0018 40F6B830 		movw	r0, #3000
 368 001c FFF7FEFF 		bl	CyDelay
 369              	.LVL49:
  45:main.c        **** 
 370              		.loc 1 45 0
 371 0020 FFF7FEFF 		bl	standardColor
 372              	.LVL50:
 373              	.L35:
 374              	.LBB4:
  49:main.c        ****         handleOrderReceived(i);   
 375              		.loc 1 49 0 discriminator 1
ARM GAS  C:\Users\PETERW~1\AppData\Local\Temp\ccVpwXsh.s 			page 11


 376 0024 FFF7FEFF 		bl	I2C_Kommunikation
 377              	.LVL51:
  50:main.c        ****        }
 378              		.loc 1 50 0 discriminator 1
 379 0028 FFF7FEFF 		bl	handleOrderReceived
 380              	.LVL52:
 381 002c FAE7     		b	.L35
 382              	.LBE4:
 383              		.cfi_endproc
 384              	.LFE63:
 385              		.size	main, .-main
 386              		.global	rdBuf
 387              		.comm	distance,4,4
 388              		.comm	orderReceived,4,4
 389 002e 00BF     		.bss
 390              		.align	2
 391              		.set	.LANCHOR0,. + 0
 392              		.type	rdBuf, %object
 393              		.size	rdBuf, 8
 394              	rdBuf:
 395 0000 00000000 		.space	8
 395      00000000 
 396              		.text
 397              	.Letext0:
 398              		.file 2 "c:\\program files (x86)\\cypress\\psoc creator\\4.3\\psoc creator\\import\\gnu\\arm\\5.4.
 399              		.file 3 "c:\\program files (x86)\\cypress\\psoc creator\\4.3\\psoc creator\\import\\gnu\\arm\\5.4.
 400              		.file 4 "Generated_Source\\PSoC5/cytypes.h"
 401              		.file 5 "Generated_Source\\PSoC5/core_cm3.h"
 402              		.file 6 "colorSensor.h"
 403              		.file 7 "motorStyring.h"
 404              		.file 8 "Generated_Source\\PSoC5/CyLib.h"
 405              		.file 9 "Generated_Source\\PSoC5/Done.h"
 406              		.file 10 "Scale.h"
 407              		.file 11 "Generated_Source\\PSoC5/I2C.h"
 408              		.file 12 "i2cKommunikation.h"
 409              		.file 13 "Afstandssensor.h"