ARM GAS  C:\Users\Simon\AppData\Local\Temp\ccYRMvys.s 			page 1


   1              		.syntax unified
   2              		.cpu cortex-m3
   3              		.fpu softvfp
   4              		.eabi_attribute 20, 1
   5              		.eabi_attribute 21, 1
   6              		.eabi_attribute 23, 3
   7              		.eabi_attribute 24, 1
   8              		.eabi_attribute 25, 1
   9              		.eabi_attribute 26, 1
  10              		.eabi_attribute 30, 1
  11              		.eabi_attribute 34, 1
  12              		.eabi_attribute 18, 4
  13              		.thumb
  14              		.syntax unified
  15              		.file	"colorSensor.c"
  16              		.text
  17              	.Ltext0:
  18              		.cfi_sections	.debug_frame
  19              		.section	.text.timer_isr,"ax",%progbits
  20              		.align	2
  21              		.global	timer_isr
  22              		.thumb
  23              		.thumb_func
  24              		.type	timer_isr, %function
  25              	timer_isr:
  26              	.LFB64:
  27              		.file 1 "colorSensor.c"
   1:colorSensor.c **** 
   2:colorSensor.c **** /* ========================================
   3:colorSensor.c ****  *
   4:colorSensor.c ****  * Copyright Lucas, 2020
   5:colorSensor.c ****  * All Rights Reserved
   6:colorSensor.c ****  * UNPUBLISHED, LICENSED SOFTWARE.
   7:colorSensor.c ****  *
   8:colorSensor.c ****  * CONFIDENTIAL AND PROPRIETARY INFORMATION
   9:colorSensor.c ****  * WHICH IS THE PROPERTY OF your company.
  10:colorSensor.c ****  *
  11:colorSensor.c ****  * ========================================
  12:colorSensor.c **** */
  13:colorSensor.c **** #include "project.h"
  14:colorSensor.c **** #include <stdio.h>
  15:colorSensor.c **** #include <stdint.h>
  16:colorSensor.c **** #include "colorSensor.h"
  17:colorSensor.c **** 
  18:colorSensor.c **** #define COUNTER_SIZE 10000
  19:colorSensor.c **** uint32_t freq = 0;
  20:colorSensor.c **** int dataReady = 0;
  21:colorSensor.c **** int Counter_cycle = 0;
  22:colorSensor.c **** 
  23:colorSensor.c **** #define STRING_LENGTH 128  
  24:colorSensor.c **** extern char str[] ;
  25:colorSensor.c **** void print(char *str) ;
  26:colorSensor.c **** 
  27:colorSensor.c **** CY_ISR(timer_isr)//Timer i interrupt routine
  28:colorSensor.c **** {
  28              		.loc 1 28 0
  29              		.cfi_startproc
ARM GAS  C:\Users\Simon\AppData\Local\Temp\ccYRMvys.s 			page 2


  30              		@ args = 0, pretend = 0, frame = 0
  31              		@ frame_needed = 0, uses_anonymous_args = 0
  32 0000 10B5     		push	{r4, lr}
  33              		.cfi_def_cfa_offset 8
  34              		.cfi_offset 4, -8
  35              		.cfi_offset 14, -4
  29:colorSensor.c ****     Counter_Stop();
  36              		.loc 1 29 0
  37 0002 FFF7FEFF 		bl	Counter_Stop
  38              	.LVL0:
  30:colorSensor.c ****     Timer_Stop();
  39              		.loc 1 30 0
  40 0006 FFF7FEFF 		bl	Timer_Stop
  41              	.LVL1:
  31:colorSensor.c ****     freq = Counter_ReadCounter();
  42              		.loc 1 31 0
  43 000a FFF7FEFF 		bl	Counter_ReadCounter
  44              	.LVL2:
  45 000e 074C     		ldr	r4, .L3
  32:colorSensor.c ****     freq += Counter_cycle * COUNTER_SIZE;
  46              		.loc 1 32 0
  47 0010 6368     		ldr	r3, [r4, #4]
  48 0012 42F21072 		movw	r2, #10000
  49 0016 02FB0300 		mla	r0, r2, r3, r0
  50 001a 2060     		str	r0, [r4]
  33:colorSensor.c ****     OE_Write(1);
  51              		.loc 1 33 0
  52 001c 0120     		movs	r0, #1
  53 001e FFF7FEFF 		bl	OE_Write
  54              	.LVL3:
  34:colorSensor.c ****     Timer_INT_ClearPending();
  55              		.loc 1 34 0
  56 0022 FFF7FEFF 		bl	Timer_INT_ClearPending
  57              	.LVL4:
  35:colorSensor.c ****     dataReady = 1;
  58              		.loc 1 35 0
  59 0026 0123     		movs	r3, #1
  60 0028 A360     		str	r3, [r4, #8]
  61 002a 10BD     		pop	{r4, pc}
  62              	.L4:
  63              		.align	2
  64              	.L3:
  65 002c 00000000 		.word	.LANCHOR0
  66              		.cfi_endproc
  67              	.LFE64:
  68              		.size	timer_isr, .-timer_isr
  69              		.section	.text.counter_isr,"ax",%progbits
  70              		.align	2
  71              		.global	counter_isr
  72              		.thumb
  73              		.thumb_func
  74              		.type	counter_isr, %function
  75              	counter_isr:
  76              	.LFB65:
  36:colorSensor.c **** }
  37:colorSensor.c **** 
  38:colorSensor.c **** 
ARM GAS  C:\Users\Simon\AppData\Local\Temp\ccYRMvys.s 			page 3


  39:colorSensor.c **** CY_ISR(counter_isr)//Counter i interrupt routine
  40:colorSensor.c **** {
  77              		.loc 1 40 0
  78              		.cfi_startproc
  79              		@ args = 0, pretend = 0, frame = 0
  80              		@ frame_needed = 0, uses_anonymous_args = 0
  81 0000 08B5     		push	{r3, lr}
  82              		.cfi_def_cfa_offset 8
  83              		.cfi_offset 3, -8
  84              		.cfi_offset 14, -4
  41:colorSensor.c ****     Counter_INT_ClearPending();
  85              		.loc 1 41 0
  86 0002 FFF7FEFF 		bl	Counter_INT_ClearPending
  87              	.LVL5:
  42:colorSensor.c ****     Counter_cycle++;
  88              		.loc 1 42 0
  89 0006 024A     		ldr	r2, .L7
  90 0008 5368     		ldr	r3, [r2, #4]
  91 000a 0133     		adds	r3, r3, #1
  92 000c 5360     		str	r3, [r2, #4]
  93 000e 08BD     		pop	{r3, pc}
  94              	.L8:
  95              		.align	2
  96              	.L7:
  97 0010 00000000 		.word	.LANCHOR0
  98              		.cfi_endproc
  99              	.LFE65:
 100              		.size	counter_isr, .-counter_isr
 101              		.section	.text.color_init_start,"ax",%progbits
 102              		.align	2
 103              		.global	color_init_start
 104              		.thumb
 105              		.thumb_func
 106              		.type	color_init_start, %function
 107              	color_init_start:
 108              	.LFB66:
  43:colorSensor.c **** }
  44:colorSensor.c **** 
  45:colorSensor.c **** void color_init_start(void)//Starter de indbyggede funktioner fra topdesign: UART, Timer, Counter
  46:colorSensor.c **** {
 109              		.loc 1 46 0
 110              		.cfi_startproc
 111              		@ args = 0, pretend = 0, frame = 0
 112              		@ frame_needed = 0, uses_anonymous_args = 0
 113 0000 08B5     		push	{r3, lr}
 114              		.cfi_def_cfa_offset 8
 115              		.cfi_offset 3, -8
 116              		.cfi_offset 14, -4
  47:colorSensor.c ****     Timer_INT_StartEx(timer_isr);
 117              		.loc 1 47 0
 118 0002 0348     		ldr	r0, .L11
 119 0004 FFF7FEFF 		bl	Timer_INT_StartEx
 120              	.LVL6:
  48:colorSensor.c ****     Counter_INT_StartEx(counter_isr);
 121              		.loc 1 48 0
 122 0008 0248     		ldr	r0, .L11+4
 123 000a FFF7FEFF 		bl	Counter_INT_StartEx
ARM GAS  C:\Users\Simon\AppData\Local\Temp\ccYRMvys.s 			page 4


 124              	.LVL7:
 125 000e 08BD     		pop	{r3, pc}
 126              	.L12:
 127              		.align	2
 128              	.L11:
 129 0010 00000000 		.word	timer_isr
 130 0014 00000000 		.word	counter_isr
 131              		.cfi_endproc
 132              	.LFE66:
 133              		.size	color_init_start, .-color_init_start
 134              		.section	.text.read_color,"ax",%progbits
 135              		.align	2
 136              		.global	read_color
 137              		.thumb
 138              		.thumb_func
 139              		.type	read_color, %function
 140              	read_color:
 141              	.LFB67:
  49:colorSensor.c **** }
  50:colorSensor.c **** 
  51:colorSensor.c **** void read_color(void)//Omdanner inputs til frekvens vha. counter og timeren
  52:colorSensor.c **** {
 142              		.loc 1 52 0
 143              		.cfi_startproc
 144              		@ args = 0, pretend = 0, frame = 0
 145              		@ frame_needed = 0, uses_anonymous_args = 0
 146 0000 08B5     		push	{r3, lr}
 147              		.cfi_def_cfa_offset 8
 148              		.cfi_offset 3, -8
 149              		.cfi_offset 14, -4
  53:colorSensor.c ****     OE_Write(0);
 150              		.loc 1 53 0
 151 0002 0020     		movs	r0, #0
 152 0004 FFF7FEFF 		bl	OE_Write
 153              	.LVL8:
  54:colorSensor.c ****     Control_Reg_Write(1);
 154              		.loc 1 54 0
 155 0008 0120     		movs	r0, #1
 156 000a FFF7FEFF 		bl	Control_Reg_Write
 157              	.LVL9:
  55:colorSensor.c ****     CyDelay(1);
 158              		.loc 1 55 0
 159 000e 0120     		movs	r0, #1
 160 0010 FFF7FEFF 		bl	CyDelay
 161              	.LVL10:
  56:colorSensor.c ****     Control_Reg_Write(0);
 162              		.loc 1 56 0
 163 0014 0020     		movs	r0, #0
 164 0016 FFF7FEFF 		bl	Control_Reg_Write
 165              	.LVL11:
  57:colorSensor.c ****     dataReady = 0;
 166              		.loc 1 57 0
 167 001a 074B     		ldr	r3, .L15
 168 001c 0022     		movs	r2, #0
 169 001e 9A60     		str	r2, [r3, #8]
  58:colorSensor.c ****     Counter_cycle = 0;
 170              		.loc 1 58 0
ARM GAS  C:\Users\Simon\AppData\Local\Temp\ccYRMvys.s 			page 5


 171 0020 5A60     		str	r2, [r3, #4]
  59:colorSensor.c ****     Counter_Start();
 172              		.loc 1 59 0
 173 0022 FFF7FEFF 		bl	Counter_Start
 174              	.LVL12:
  60:colorSensor.c ****     Timer_INT_StartEx(timer_isr);
 175              		.loc 1 60 0
 176 0026 0548     		ldr	r0, .L15+4
 177 0028 FFF7FEFF 		bl	Timer_INT_StartEx
 178              	.LVL13:
  61:colorSensor.c ****     Counter_INT_StartEx(counter_isr);
 179              		.loc 1 61 0
 180 002c 0448     		ldr	r0, .L15+8
 181 002e FFF7FEFF 		bl	Counter_INT_StartEx
 182              	.LVL14:
  62:colorSensor.c ****     
  63:colorSensor.c ****     Timer_Start();
 183              		.loc 1 63 0
 184 0032 FFF7FEFF 		bl	Timer_Start
 185              	.LVL15:
 186 0036 08BD     		pop	{r3, pc}
 187              	.L16:
 188              		.align	2
 189              	.L15:
 190 0038 00000000 		.word	.LANCHOR0
 191 003c 00000000 		.word	timer_isr
 192 0040 00000000 		.word	counter_isr
 193              		.cfi_endproc
 194              	.LFE67:
 195              		.size	read_color, .-read_color
 196              		.section	.text.get_freq,"ax",%progbits
 197              		.align	2
 198              		.global	get_freq
 199              		.thumb
 200              		.thumb_func
 201              		.type	get_freq, %function
 202              	get_freq:
 203              	.LFB68:
  64:colorSensor.c **** }
  65:colorSensor.c **** 
  66:colorSensor.c **** int get_freq(char color)//Modtager input på baggrund af indstillinger for farvefilter samt scaling
  67:colorSensor.c **** {
 204              		.loc 1 67 0
 205              		.cfi_startproc
 206              		@ args = 0, pretend = 0, frame = 0
 207              		@ frame_needed = 0, uses_anonymous_args = 0
 208              	.LVL16:
 209 0000 10B5     		push	{r4, lr}
 210              		.cfi_def_cfa_offset 8
 211              		.cfi_offset 4, -8
 212              		.cfi_offset 14, -4
 213 0002 0446     		mov	r4, r0
  68:colorSensor.c ****     //scaling 2%
  69:colorSensor.c ****     S0_Write(0);
 214              		.loc 1 69 0
 215 0004 0020     		movs	r0, #0
 216              	.LVL17:
ARM GAS  C:\Users\Simon\AppData\Local\Temp\ccYRMvys.s 			page 6


 217 0006 FFF7FEFF 		bl	S0_Write
 218              	.LVL18:
  70:colorSensor.c ****     S1_Write(1);
 219              		.loc 1 70 0
 220 000a 0120     		movs	r0, #1
 221 000c FFF7FEFF 		bl	S1_Write
 222              	.LVL19:
  71:colorSensor.c ****     
  72:colorSensor.c ****    if(color=='r')//Rød farve-filter tilføjes og frekvensen registeres
 223              		.loc 1 72 0
 224 0010 722C     		cmp	r4, #114
 225 0012 08D1     		bne	.L18
  73:colorSensor.c ****     {   
  74:colorSensor.c ****         S2_Write(0);
 226              		.loc 1 74 0
 227 0014 0020     		movs	r0, #0
 228 0016 FFF7FEFF 		bl	S2_Write
 229              	.LVL20:
  75:colorSensor.c ****         S3_Write(0);
 230              		.loc 1 75 0
 231 001a 0020     		movs	r0, #0
 232 001c FFF7FEFF 		bl	S3_Write
 233              	.LVL21:
  76:colorSensor.c ****         read_color();
 234              		.loc 1 76 0
 235 0020 FFF7FEFF 		bl	read_color
 236              	.LVL22:
 237 0024 1FE0     		b	.L22
 238              	.L18:
  77:colorSensor.c ****     }
  78:colorSensor.c ****     
  79:colorSensor.c ****     else if(color=='g')//Grøn farve-filter tilføjes og frekvensen registeres
 239              		.loc 1 79 0
 240 0026 672C     		cmp	r4, #103
 241 0028 08D1     		bne	.L20
  80:colorSensor.c ****     { 
  81:colorSensor.c ****         S2_Write(1);
 242              		.loc 1 81 0
 243 002a 0120     		movs	r0, #1
 244 002c FFF7FEFF 		bl	S2_Write
 245              	.LVL23:
  82:colorSensor.c ****         S3_Write(1);
 246              		.loc 1 82 0
 247 0030 0120     		movs	r0, #1
 248 0032 FFF7FEFF 		bl	S3_Write
 249              	.LVL24:
  83:colorSensor.c ****         read_color();
 250              		.loc 1 83 0
 251 0036 FFF7FEFF 		bl	read_color
 252              	.LVL25:
 253 003a 14E0     		b	.L22
 254              	.L20:
  84:colorSensor.c ****     }
  85:colorSensor.c ****     
  86:colorSensor.c ****     else if(color=='b')//Blå farve-filter tilføjes og frekvensen registeres
 255              		.loc 1 86 0
 256 003c 622C     		cmp	r4, #98
ARM GAS  C:\Users\Simon\AppData\Local\Temp\ccYRMvys.s 			page 7


 257 003e 08D1     		bne	.L21
  87:colorSensor.c ****     {
  88:colorSensor.c ****         S2_Write(0);
 258              		.loc 1 88 0
 259 0040 0020     		movs	r0, #0
 260 0042 FFF7FEFF 		bl	S2_Write
 261              	.LVL26:
  89:colorSensor.c ****         S3_Write(1);
 262              		.loc 1 89 0
 263 0046 0120     		movs	r0, #1
 264 0048 FFF7FEFF 		bl	S3_Write
 265              	.LVL27:
  90:colorSensor.c ****         read_color();
 266              		.loc 1 90 0
 267 004c FFF7FEFF 		bl	read_color
 268              	.LVL28:
 269 0050 09E0     		b	.L22
 270              	.L21:
  91:colorSensor.c ****     }
  92:colorSensor.c ****     else if(color=='c')//'Clear' farve-filter tilføjes og frekvensen registeres
 271              		.loc 1 92 0
 272 0052 632C     		cmp	r4, #99
 273 0054 07D1     		bne	.L22
  93:colorSensor.c ****     {
  94:colorSensor.c ****         S2_Write(1);
 274              		.loc 1 94 0
 275 0056 0120     		movs	r0, #1
 276 0058 FFF7FEFF 		bl	S2_Write
 277              	.LVL29:
  95:colorSensor.c ****         S3_Write(0);
 278              		.loc 1 95 0
 279 005c 0020     		movs	r0, #0
 280 005e FFF7FEFF 		bl	S3_Write
 281              	.LVL30:
  96:colorSensor.c ****         read_color();
 282              		.loc 1 96 0
 283 0062 FFF7FEFF 		bl	read_color
 284              	.LVL31:
 285              	.L22:
  97:colorSensor.c ****     }
  98:colorSensor.c ****     
  99:colorSensor.c ****     while(!dataReady)
 286              		.loc 1 99 0 discriminator 1
 287 0066 034B     		ldr	r3, .L24
 288 0068 9B68     		ldr	r3, [r3, #8]
 289 006a 002B     		cmp	r3, #0
 290 006c FBD0     		beq	.L22
 100:colorSensor.c ****     {
 101:colorSensor.c ****     ;
 102:colorSensor.c ****     }
 103:colorSensor.c ****     return freq;
 104:colorSensor.c **** }
 291              		.loc 1 104 0
 292 006e 014B     		ldr	r3, .L24
 293 0070 1868     		ldr	r0, [r3]
 294 0072 10BD     		pop	{r4, pc}
 295              	.L25:
ARM GAS  C:\Users\Simon\AppData\Local\Temp\ccYRMvys.s 			page 8


 296              		.align	2
 297              	.L24:
 298 0074 00000000 		.word	.LANCHOR0
 299              		.cfi_endproc
 300              	.LFE68:
 301              		.size	get_freq, .-get_freq
 302              		.section	.text.getColor,"ax",%progbits
 303              		.align	2
 304              		.global	getColor
 305              		.thumb
 306              		.thumb_func
 307              		.type	getColor, %function
 308              	getColor:
 309              	.LFB69:
 105:colorSensor.c **** 
 106:colorSensor.c **** char str[STRING_LENGTH+1] ; /* print buff */
 107:colorSensor.c **** 
 108:colorSensor.c **** 
 109:colorSensor.c **** int getColor()
 110:colorSensor.c **** {
 310              		.loc 1 110 0
 311              		.cfi_startproc
 312              		@ args = 0, pretend = 0, frame = 0
 313              		@ frame_needed = 0, uses_anonymous_args = 0
 314 0000 38B5     		push	{r3, r4, r5, lr}
 315              		.cfi_def_cfa_offset 16
 316              		.cfi_offset 3, -16
 317              		.cfi_offset 4, -12
 318              		.cfi_offset 5, -8
 319              		.cfi_offset 14, -4
 320              	.LVL32:
 111:colorSensor.c **** uint freqR, freqG, freqB = 0;
 112:colorSensor.c **** uint countR, countG, countB = 0;
 113:colorSensor.c ****     
 114:colorSensor.c ****     color_init_start();
 321              		.loc 1 114 0
 322 0002 FFF7FEFF 		bl	color_init_start
 323              	.LVL33:
 115:colorSensor.c ****     read_color();
 324              		.loc 1 115 0
 325 0006 FFF7FEFF 		bl	read_color
 326              	.LVL34:
 116:colorSensor.c ****     
 117:colorSensor.c **** 
 118:colorSensor.c ****             freqR = get_freq('r')-10;
 327              		.loc 1 118 0
 328 000a 7220     		movs	r0, #114
 329 000c FFF7FEFF 		bl	get_freq
 330              	.LVL35:
 331 0010 A0F10A04 		sub	r4, r0, #10
 332              	.LVL36:
 119:colorSensor.c ****             freqG = get_freq('g')+10;
 333              		.loc 1 119 0
 334 0014 6720     		movs	r0, #103
 335 0016 FFF7FEFF 		bl	get_freq
 336              	.LVL37:
 337 001a 00F10A05 		add	r5, r0, #10
ARM GAS  C:\Users\Simon\AppData\Local\Temp\ccYRMvys.s 			page 9


 338              	.LVL38:
 120:colorSensor.c ****             freqB = get_freq('b');
 339              		.loc 1 120 0
 340 001e 6220     		movs	r0, #98
 341 0020 FFF7FEFF 		bl	get_freq
 342              	.LVL39:
 121:colorSensor.c ****             
 122:colorSensor.c ****             //Nedenstående to sætninger bruges til at se frekvensen på farverne
 123:colorSensor.c ****             //sprintf(str,"Red freq: %u Hz, Green freq: %u, Blue freq: %u\n\n\r",freqR,freqG,freqB)
 124:colorSensor.c ****             //print(str);
 125:colorSensor.c ****             
 126:colorSensor.c ****             //Nedenstående er koden der skal bruges
 127:colorSensor.c ****             
 128:colorSensor.c ****              if(freqR>freqG&&freqR>freqB)
 343              		.loc 1 128 0
 344 0024 AC42     		cmp	r4, r5
 345 0026 0ED9     		bls	.L27
 346              		.loc 1 128 0 is_stmt 0 discriminator 1
 347 0028 8442     		cmp	r4, r0
 348 002a 0CD9     		bls	.L27
 129:colorSensor.c ****                 {
 130:colorSensor.c ****                     if(freqR>=100)
 349              		.loc 1 130 0 is_stmt 1
 350 002c 632C     		cmp	r4, #99
 351 002e 1CD8     		bhi	.L29
 131:colorSensor.c ****                     {
 132:colorSensor.c ****                         countR ++;
 133:colorSensor.c ****                         if(countR==5)
 134:colorSensor.c ****                         {
 135:colorSensor.c ****                             //Indsæt 'driveForward funktion'
 136:colorSensor.c ****                         sprintf(str,"Red color detected\n\r");
 137:colorSensor.c ****                         print(str);
 138:colorSensor.c ****                         countR = 0;
 139:colorSensor.c ****                         }
 140:colorSensor.c ****                         
 141:colorSensor.c ****                     }
 142:colorSensor.c ****                     else
 143:colorSensor.c ****                     {
 144:colorSensor.c ****                         //Indsæt 'driveLeft funktion'
 145:colorSensor.c ****                         sprintf(str,"Unknown color\n\r");
 352              		.loc 1 145 0
 353 0030 0F4D     		ldr	r5, .L33
 354              	.LVL40:
 355 0032 104C     		ldr	r4, .L33+4
 356              	.LVL41:
 357 0034 0FCC     		ldmia	r4!, {r0, r1, r2, r3}
 358              	.LVL42:
 359 0036 2860     		str	r0, [r5]	@ unaligned
 360 0038 6960     		str	r1, [r5, #4]	@ unaligned
 361 003a AA60     		str	r2, [r5, #8]	@ unaligned
 362 003c EB60     		str	r3, [r5, #12]	@ unaligned
 146:colorSensor.c ****                         print(str);
 363              		.loc 1 146 0
 364 003e 2846     		mov	r0, r5
 365 0040 FFF7FEFF 		bl	print
 366              	.LVL43:
 367 0044 11E0     		b	.L29
ARM GAS  C:\Users\Simon\AppData\Local\Temp\ccYRMvys.s 			page 10


 368              	.LVL44:
 369              	.L27:
 147:colorSensor.c ****                     }      
 148:colorSensor.c ****                 }
 149:colorSensor.c **** 
 150:colorSensor.c ****             else if (freqG>freqR&&freqG>freqB)
 370              		.loc 1 150 0
 371 0046 AC42     		cmp	r4, r5
 372 0048 01D2     		bcs	.L30
 373              		.loc 1 150 0 is_stmt 0 discriminator 1
 374 004a 8542     		cmp	r5, r0
 375 004c 0DD8     		bhi	.L29
 376              	.L30:
 151:colorSensor.c ****                 {
 152:colorSensor.c ****                         countG ++;
 153:colorSensor.c ****                         if(countG==5)
 154:colorSensor.c ****                         {
 155:colorSensor.c ****                             //Indsæt
 156:colorSensor.c ****                         sprintf(str,"Green color detected\n\r");
 157:colorSensor.c ****                         print(str);
 158:colorSensor.c ****                         countG = 0;
 159:colorSensor.c ****                         }
 160:colorSensor.c ****                 }
 161:colorSensor.c ****                 
 162:colorSensor.c ****             else if(freqB>freqG&&freqB>freqR)
 377              		.loc 1 162 0 is_stmt 1
 378 004e 8542     		cmp	r5, r0
 379 0050 01D2     		bcs	.L31
 380              		.loc 1 162 0 is_stmt 0 discriminator 1
 381 0052 8442     		cmp	r4, r0
 382 0054 09D3     		bcc	.L29
 383              	.L31:
 163:colorSensor.c ****                 {
 164:colorSensor.c ****                         countB ++;
 165:colorSensor.c ****                         if(countB==5)
 166:colorSensor.c ****                         {
 167:colorSensor.c ****                         sprintf(str,"Blue color detected\n\r");
 168:colorSensor.c ****                         print(str);
 169:colorSensor.c ****                         countB = 0;
 170:colorSensor.c ****                         }
 171:colorSensor.c ****                 }
 172:colorSensor.c ****                 
 173:colorSensor.c ****                 else
 174:colorSensor.c ****                 {
 175:colorSensor.c ****                         //Indsæt 'driveLeft funktion'
 176:colorSensor.c ****                     sprintf(str,"Unknown color\n\r");
 384              		.loc 1 176 0 is_stmt 1
 385 0056 064D     		ldr	r5, .L33
 386              	.LVL45:
 387 0058 064C     		ldr	r4, .L33+4
 388              	.LVL46:
 389 005a 0FCC     		ldmia	r4!, {r0, r1, r2, r3}
 390              	.LVL47:
 391 005c 2860     		str	r0, [r5]	@ unaligned
 392 005e 6960     		str	r1, [r5, #4]	@ unaligned
 393 0060 AA60     		str	r2, [r5, #8]	@ unaligned
 394 0062 EB60     		str	r3, [r5, #12]	@ unaligned
ARM GAS  C:\Users\Simon\AppData\Local\Temp\ccYRMvys.s 			page 11


 177:colorSensor.c ****                     print(str);
 395              		.loc 1 177 0
 396 0064 2846     		mov	r0, r5
 397 0066 FFF7FEFF 		bl	print
 398              	.LVL48:
 399              	.L29:
 178:colorSensor.c ****                 }
 179:colorSensor.c ****                        
 180:colorSensor.c ****         
 181:colorSensor.c ****          
 182:colorSensor.c **** 
 183:colorSensor.c ****         return 0;
 184:colorSensor.c **** }
 400              		.loc 1 184 0
 401 006a 0020     		movs	r0, #0
 402 006c 38BD     		pop	{r3, r4, r5, pc}
 403              	.L34:
 404 006e 00BF     		.align	2
 405              	.L33:
 406 0070 00000000 		.word	str
 407 0074 18000000 		.word	.LC1
 408              		.cfi_endproc
 409              	.LFE69:
 410              		.size	getColor, .-getColor
 411              		.comm	str,129,4
 412              		.global	Counter_cycle
 413              		.global	dataReady
 414              		.global	freq
 415              		.section	.rodata.str1.4,"aMS",%progbits,1
 416              		.align	2
 417              	.LC0:
 418 0000 52656420 		.ascii	"Red color detected\012\015\000"
 418      636F6C6F 
 418      72206465 
 418      74656374 
 418      65640A0D 
 419 0015 000000   		.space	3
 420              	.LC1:
 421 0018 556E6B6E 		.ascii	"Unknown color\012\015\000"
 421      6F776E20 
 421      636F6C6F 
 421      720A0D00 
 422              	.LC2:
 423 0028 47726565 		.ascii	"Green color detected\012\015\000"
 423      6E20636F 
 423      6C6F7220 
 423      64657465 
 423      63746564 
 424              		.bss
 425              		.align	2
 426              		.set	.LANCHOR0,. + 0
 427              		.type	freq, %object
 428              		.size	freq, 4
 429              	freq:
 430 0000 00000000 		.space	4
 431              		.type	Counter_cycle, %object
 432              		.size	Counter_cycle, 4
ARM GAS  C:\Users\Simon\AppData\Local\Temp\ccYRMvys.s 			page 12


 433              	Counter_cycle:
 434 0004 00000000 		.space	4
 435              		.type	dataReady, %object
 436              		.size	dataReady, 4
 437              	dataReady:
 438 0008 00000000 		.space	4
 439              		.text
 440              	.Letext0:
 441              		.file 2 "c:\\program files (x86)\\cypress\\psoc creator\\4.3\\psoc creator\\import\\gnu\\arm\\5.4.
 442              		.file 3 "c:\\program files (x86)\\cypress\\psoc creator\\4.3\\psoc creator\\import\\gnu\\arm\\5.4.
 443              		.file 4 "c:\\program files (x86)\\cypress\\psoc creator\\4.3\\psoc creator\\import\\gnu\\arm\\5.4.
 444              		.file 5 "Generated_Source\\PSoC5/core_cm3.h"
 445              		.file 6 "Generated_Source\\PSoC5/Counter.h"
 446              		.file 7 "Generated_Source\\PSoC5/Timer.h"
 447              		.file 8 "Generated_Source\\PSoC5/OE.h"
 448              		.file 9 "Generated_Source\\PSoC5/Timer_INT.h"
 449              		.file 10 "Generated_Source\\PSoC5/Counter_INT.h"
 450              		.file 11 "Generated_Source\\PSoC5/Control_Reg.h"
 451              		.file 12 "Generated_Source\\PSoC5/CyLib.h"
 452              		.file 13 "Generated_Source\\PSoC5/S0.h"
 453              		.file 14 "Generated_Source\\PSoC5/S1.h"
 454              		.file 15 "Generated_Source\\PSoC5/S2.h"
 455              		.file 16 "Generated_Source\\PSoC5/S3.h"