ARM GAS  C:\Users\AugustHA\AppData\Local\Temp\ccocuyad.s 			page 1


   1              		.syntax unified
   2              		.cpu cortex-m3
   3              		.fpu softvfp
   4              		.eabi_attribute 20, 1
   5              		.eabi_attribute 21, 1
   6              		.eabi_attribute 23, 3
   7              		.eabi_attribute 24, 1
   8              		.eabi_attribute 25, 1
   9              		.eabi_attribute 26, 1
  10              		.eabi_attribute 30, 1
  11              		.eabi_attribute 34, 1
  12              		.eabi_attribute 18, 4
  13              		.thumb
  14              		.syntax unified
  15              		.file	"i2cKommunikation.c"
  16              		.text
  17              	.Ltext0:
  18              		.cfi_sections	.debug_frame
  19              		.section	.text.init_i2c,"ax",%progbits
  20              		.align	2
  21              		.global	init_i2c
  22              		.thumb
  23              		.thumb_func
  24              		.type	init_i2c, %function
  25              	init_i2c:
  26              	.LFB63:
  27              		.file 1 "i2cKommunikation.c"
   1:i2cKommunikation.c **** /* ========================================
   2:i2cKommunikation.c ****  *
   3:i2cKommunikation.c ****  * Copyright YOUR COMPANY, THE YEAR
   4:i2cKommunikation.c ****  * All Rights Reserved
   5:i2cKommunikation.c ****  * UNPUBLISHED, LICENSED SOFTWARE.
   6:i2cKommunikation.c ****  *
   7:i2cKommunikation.c ****  * CONFIDENTIAL AND PROPRIETARY INFORMATION
   8:i2cKommunikation.c ****  * WHICH IS THE PROPERTY OF your company.
   9:i2cKommunikation.c ****  *
  10:i2cKommunikation.c ****  * ========================================
  11:i2cKommunikation.c **** */
  12:i2cKommunikation.c **** /* ========================================
  13:i2cKommunikation.c ****  *
  14:i2cKommunikation.c ****  * Copyright YOUR COMPANY, THE YEAR
  15:i2cKommunikation.c ****  * All Rights Reserved
  16:i2cKommunikation.c ****  * UNPUBLISHED, LICENSED SOFTWARE.
  17:i2cKommunikation.c ****  *
  18:i2cKommunikation.c ****  * CONFIDENTIAL AND PROPRIETARY INFORMATION
  19:i2cKommunikation.c ****  * WHICH IS THE PROPERTY OF your company.
  20:i2cKommunikation.c ****  *
  21:i2cKommunikation.c ****  * ========================================
  22:i2cKommunikation.c **** */
  23:i2cKommunikation.c **** 
  24:i2cKommunikation.c **** #include "i2cKommunikation.h"
  25:i2cKommunikation.c **** #include "project.h"
  26:i2cKommunikation.c **** 
  27:i2cKommunikation.c **** uint8 byteCnt;   
  28:i2cKommunikation.c **** uint8 wrBuf[8];
  29:i2cKommunikation.c **** uint8 rdBuf[8];
  30:i2cKommunikation.c **** uint8 i;
ARM GAS  C:\Users\AugustHA\AppData\Local\Temp\ccocuyad.s 			page 2


  31:i2cKommunikation.c **** 
  32:i2cKommunikation.c **** void init_i2c()
  33:i2cKommunikation.c **** {
  28              		.loc 1 33 0
  29              		.cfi_startproc
  30              		@ args = 0, pretend = 0, frame = 0
  31              		@ frame_needed = 0, uses_anonymous_args = 0
  32 0000 10B5     		push	{r4, lr}
  33              		.cfi_def_cfa_offset 8
  34              		.cfi_offset 4, -8
  35              		.cfi_offset 14, -4
  34:i2cKommunikation.c ****     I2C_SlaveInitWriteBuf((uint8 *) wrBuf, 8);
  36              		.loc 1 34 0
  37 0002 064C     		ldr	r4, .L3
  38 0004 0821     		movs	r1, #8
  39 0006 2046     		mov	r0, r4
  40 0008 FFF7FEFF 		bl	I2C_SlaveInitWriteBuf
  41              	.LVL0:
  35:i2cKommunikation.c ****     I2C_SlaveInitReadBuf((uint8 *) wrBuf, 8);
  42              		.loc 1 35 0
  43 000c 0821     		movs	r1, #8
  44 000e 2046     		mov	r0, r4
  45 0010 FFF7FEFF 		bl	I2C_SlaveInitReadBuf
  46              	.LVL1:
  36:i2cKommunikation.c ****     I2C_Start();
  47              		.loc 1 36 0
  48 0014 FFF7FEFF 		bl	I2C_Start
  49              	.LVL2:
  50 0018 10BD     		pop	{r4, pc}
  51              	.L4:
  52 001a 00BF     		.align	2
  53              	.L3:
  54 001c 00000000 		.word	wrBuf
  55              		.cfi_endproc
  56              	.LFE63:
  57              		.size	init_i2c, .-init_i2c
  58              		.section	.text.I2C_Kommunikation,"ax",%progbits
  59              		.align	2
  60              		.global	I2C_Kommunikation
  61              		.thumb
  62              		.thumb_func
  63              		.type	I2C_Kommunikation, %function
  64              	I2C_Kommunikation:
  65              	.LFB64:
  37:i2cKommunikation.c **** }
  38:i2cKommunikation.c **** 
  39:i2cKommunikation.c **** char I2C_Kommunikation()
  40:i2cKommunikation.c **** {
  66              		.loc 1 40 0
  67              		.cfi_startproc
  68              		@ args = 0, pretend = 0, frame = 0
  69              		@ frame_needed = 0, uses_anonymous_args = 0
  70 0000 10B5     		push	{r4, lr}
  71              		.cfi_def_cfa_offset 8
  72              		.cfi_offset 4, -8
  73              		.cfi_offset 14, -4
  41:i2cKommunikation.c ****       if(0u != (I2C_SlaveStatus() & I2C_SSTAT_WR_CMPLT)) 
ARM GAS  C:\Users\AugustHA\AppData\Local\Temp\ccocuyad.s 			page 3


  74              		.loc 1 41 0
  75 0002 FFF7FEFF 		bl	I2C_SlaveStatus
  76              	.LVL3:
  77 0006 10F0100F 		tst	r0, #16
  78 000a 56D0     		beq	.L16
  42:i2cKommunikation.c ****          {
  43:i2cKommunikation.c ****             byteCnt = I2C_SlaveGetWriteBufSize(); 
  79              		.loc 1 43 0
  80 000c FFF7FEFF 		bl	I2C_SlaveGetWriteBufSize
  81              	.LVL4:
  82 0010 2E4B     		ldr	r3, .L24
  83 0012 1870     		strb	r0, [r3]
  44:i2cKommunikation.c ****             I2C_SlaveClearWriteStatus(); 
  84              		.loc 1 44 0
  85 0014 FFF7FEFF 		bl	I2C_SlaveClearWriteStatus
  86              	.LVL5:
  45:i2cKommunikation.c ****             
  46:i2cKommunikation.c ****             switch(wrBuf[0])
  87              		.loc 1 46 0
  88 0018 2D4B     		ldr	r3, .L24+4
  89 001a 1B78     		ldrb	r3, [r3]	@ zero_extendqisi2
  90 001c 012B     		cmp	r3, #1
  91 001e 4ED1     		bne	.L20
  47:i2cKommunikation.c ****             {
  48:i2cKommunikation.c ****                 case 0b00000001:
  49:i2cKommunikation.c ****                 {
  50:i2cKommunikation.c ****                     switch(wrBuf[1])
  92              		.loc 1 50 0
  93 0020 2B4B     		ldr	r3, .L24+4
  94 0022 5B78     		ldrb	r3, [r3, #1]	@ zero_extendqisi2
  95 0024 012B     		cmp	r3, #1
  96 0026 02D0     		beq	.L8
  97 0028 022B     		cmp	r3, #2
  98 002a 23D0     		beq	.L9
  99 002c 49E0     		b	.L21
 100              	.L8:
  51:i2cKommunikation.c ****                     {
  52:i2cKommunikation.c ****                         case 0b00000001:
  53:i2cKommunikation.c ****                         {
  54:i2cKommunikation.c ****                             switch (wrBuf[2])
 101              		.loc 1 54 0
 102 002e 284B     		ldr	r3, .L24+4
 103 0030 9B78     		ldrb	r3, [r3, #2]	@ zero_extendqisi2
 104 0032 022B     		cmp	r3, #2
 105 0034 0CD0     		beq	.L10
 106 0036 032B     		cmp	r3, #3
 107 0038 13D0     		beq	.L11
 108 003a 012B     		cmp	r3, #1
 109 003c 1AD1     		bne	.L9
  55:i2cKommunikation.c ****                             {
  56:i2cKommunikation.c ****                                 case 0b00000001:
  57:i2cKommunikation.c ****                                 {
  58:i2cKommunikation.c ****                                     rdBuf[0] = 0b00000001;
 110              		.loc 1 58 0
 111 003e 0124     		movs	r4, #1
 112 0040 244B     		ldr	r3, .L24+8
 113 0042 1C70     		strb	r4, [r3]
ARM GAS  C:\Users\AugustHA\AppData\Local\Temp\ccocuyad.s 			page 4


  59:i2cKommunikation.c ****                                     I2C_SlaveClearWriteBuf();
 114              		.loc 1 59 0
 115 0044 FFF7FEFF 		bl	I2C_SlaveClearWriteBuf
 116              	.LVL6:
  60:i2cKommunikation.c ****                                     I2C_SlaveClearReadBuf();
 117              		.loc 1 60 0
 118 0048 FFF7FEFF 		bl	I2C_SlaveClearReadBuf
 119              	.LVL7:
  61:i2cKommunikation.c ****                                     return 1;
 120              		.loc 1 61 0
 121 004c 2046     		mov	r0, r4
 122 004e 10BD     		pop	{r4, pc}
 123              	.L10:
  62:i2cKommunikation.c ****                                     break;
  63:i2cKommunikation.c ****                                 }
  64:i2cKommunikation.c ****                                 case 0b00000010:
  65:i2cKommunikation.c ****                                 {
  66:i2cKommunikation.c ****                                     rdBuf[0] = 0b00000010;
 124              		.loc 1 66 0
 125 0050 0224     		movs	r4, #2
 126 0052 204B     		ldr	r3, .L24+8
 127 0054 1C70     		strb	r4, [r3]
  67:i2cKommunikation.c ****                                     I2C_SlaveClearWriteBuf();
 128              		.loc 1 67 0
 129 0056 FFF7FEFF 		bl	I2C_SlaveClearWriteBuf
 130              	.LVL8:
  68:i2cKommunikation.c ****                                     I2C_SlaveClearReadBuf();
 131              		.loc 1 68 0
 132 005a FFF7FEFF 		bl	I2C_SlaveClearReadBuf
 133              	.LVL9:
  69:i2cKommunikation.c ****                                     return 2;
 134              		.loc 1 69 0
 135 005e 2046     		mov	r0, r4
 136 0060 10BD     		pop	{r4, pc}
 137              	.L11:
  70:i2cKommunikation.c ****                                     break;
  71:i2cKommunikation.c ****                                 }
  72:i2cKommunikation.c ****                                 case 0b00000011:
  73:i2cKommunikation.c ****                                 {
  74:i2cKommunikation.c ****                                     rdBuf[0] = 0b00000011;
 138              		.loc 1 74 0
 139 0062 0324     		movs	r4, #3
 140 0064 1B4B     		ldr	r3, .L24+8
 141 0066 1C70     		strb	r4, [r3]
  75:i2cKommunikation.c ****                                     I2C_SlaveClearWriteBuf();
 142              		.loc 1 75 0
 143 0068 FFF7FEFF 		bl	I2C_SlaveClearWriteBuf
 144              	.LVL10:
  76:i2cKommunikation.c ****                                     I2C_SlaveClearReadBuf();
 145              		.loc 1 76 0
 146 006c FFF7FEFF 		bl	I2C_SlaveClearReadBuf
 147              	.LVL11:
  77:i2cKommunikation.c ****                                     return 3;
 148              		.loc 1 77 0
 149 0070 2046     		mov	r0, r4
 150 0072 10BD     		pop	{r4, pc}
 151              	.L9:
ARM GAS  C:\Users\AugustHA\AppData\Local\Temp\ccocuyad.s 			page 5


  78:i2cKommunikation.c ****                                     break;
  79:i2cKommunikation.c ****                                    
  80:i2cKommunikation.c ****                                 }
  81:i2cKommunikation.c ****                                     default:
  82:i2cKommunikation.c ****                                     break;
  83:i2cKommunikation.c ****                             }
  84:i2cKommunikation.c ****                         }
  85:i2cKommunikation.c ****                         case 0b00000010:
  86:i2cKommunikation.c ****                         {
  87:i2cKommunikation.c ****                             switch(wrBuf[2])
 152              		.loc 1 87 0
 153 0074 164B     		ldr	r3, .L24+4
 154 0076 9B78     		ldrb	r3, [r3, #2]	@ zero_extendqisi2
 155 0078 022B     		cmp	r3, #2
 156 007a 0CD0     		beq	.L13
 157 007c 032B     		cmp	r3, #3
 158 007e 13D0     		beq	.L14
 159 0080 012B     		cmp	r3, #1
 160 0082 20D1     		bne	.L22
  88:i2cKommunikation.c ****                             {
  89:i2cKommunikation.c ****                                 case 0b00000001:
  90:i2cKommunikation.c ****                                 {
  91:i2cKommunikation.c ****                                     rdBuf[0] = 0b00000100;
 161              		.loc 1 91 0
 162 0084 0424     		movs	r4, #4
 163 0086 134B     		ldr	r3, .L24+8
 164 0088 1C70     		strb	r4, [r3]
  92:i2cKommunikation.c ****                                     I2C_SlaveClearWriteBuf();
 165              		.loc 1 92 0
 166 008a FFF7FEFF 		bl	I2C_SlaveClearWriteBuf
 167              	.LVL12:
  93:i2cKommunikation.c ****                                     I2C_SlaveClearReadBuf();
 168              		.loc 1 93 0
 169 008e FFF7FEFF 		bl	I2C_SlaveClearReadBuf
 170              	.LVL13:
  94:i2cKommunikation.c ****                                     return 4;
 171              		.loc 1 94 0
 172 0092 2046     		mov	r0, r4
 173 0094 10BD     		pop	{r4, pc}
 174              	.L13:
  95:i2cKommunikation.c ****                                     break;
  96:i2cKommunikation.c ****                                 }
  97:i2cKommunikation.c ****                                 case 0b00000010:
  98:i2cKommunikation.c ****                                 {
  99:i2cKommunikation.c ****                                     rdBuf[0] = 0b00000101;
 175              		.loc 1 99 0
 176 0096 0524     		movs	r4, #5
 177 0098 0E4B     		ldr	r3, .L24+8
 178 009a 1C70     		strb	r4, [r3]
 100:i2cKommunikation.c ****                                     I2C_SlaveClearWriteBuf();
 179              		.loc 1 100 0
 180 009c FFF7FEFF 		bl	I2C_SlaveClearWriteBuf
 181              	.LVL14:
 101:i2cKommunikation.c ****                                     I2C_SlaveClearReadBuf();
 182              		.loc 1 101 0
 183 00a0 FFF7FEFF 		bl	I2C_SlaveClearReadBuf
 184              	.LVL15:
ARM GAS  C:\Users\AugustHA\AppData\Local\Temp\ccocuyad.s 			page 6


 102:i2cKommunikation.c ****                                     return 5;
 185              		.loc 1 102 0
 186 00a4 2046     		mov	r0, r4
 187 00a6 10BD     		pop	{r4, pc}
 188              	.L14:
 103:i2cKommunikation.c ****                                     break;
 104:i2cKommunikation.c ****                                 }
 105:i2cKommunikation.c ****                                 case 0b00000011:
 106:i2cKommunikation.c ****                                 {
 107:i2cKommunikation.c ****                                     rdBuf[0] = 0b00000110;
 189              		.loc 1 107 0
 190 00a8 0624     		movs	r4, #6
 191 00aa 0A4B     		ldr	r3, .L24+8
 192 00ac 1C70     		strb	r4, [r3]
 108:i2cKommunikation.c ****                                     I2C_SlaveClearWriteBuf();
 193              		.loc 1 108 0
 194 00ae FFF7FEFF 		bl	I2C_SlaveClearWriteBuf
 195              	.LVL16:
 109:i2cKommunikation.c ****                                     I2C_SlaveClearReadBuf();
 196              		.loc 1 109 0
 197 00b2 FFF7FEFF 		bl	I2C_SlaveClearReadBuf
 198              	.LVL17:
 110:i2cKommunikation.c ****                                     return 6;
 199              		.loc 1 110 0
 200 00b6 2046     		mov	r0, r4
 201 00b8 10BD     		pop	{r4, pc}
 202              	.L16:
 111:i2cKommunikation.c ****                                     break;
 112:i2cKommunikation.c ****                                 }
 113:i2cKommunikation.c ****                                     default:
 114:i2cKommunikation.c ****                                     break;
 115:i2cKommunikation.c ****                             }
 116:i2cKommunikation.c ****                         }
 117:i2cKommunikation.c ****                         default:
 118:i2cKommunikation.c ****                         break;
 119:i2cKommunikation.c ****                     }
 120:i2cKommunikation.c ****                 }
 121:i2cKommunikation.c ****                 default:
 122:i2cKommunikation.c ****                 break;
 123:i2cKommunikation.c ****             }
 124:i2cKommunikation.c ****                     
 125:i2cKommunikation.c ****                     
 126:i2cKommunikation.c ****             
 127:i2cKommunikation.c **** //            if(wrBuf[0] == 0b00000001) // hvis der er valgt øl
 128:i2cKommunikation.c **** //                {
 129:i2cKommunikation.c **** //                    if(wrBuf[1] == 0b00000001) // hvis der er valgt bord 1
 130:i2cKommunikation.c **** //                        {  
 131:i2cKommunikation.c **** //                            if(wrBuf[2] == 0b00000001) // hvis der er valgt 1 øl
 132:i2cKommunikation.c **** //                                {
 133:i2cKommunikation.c **** //                                    rdBuf[0] = 0x1;
 134:i2cKommunikation.c **** //                                    I2C_SlaveClearWriteBuf();
 135:i2cKommunikation.c **** //                                    I2C_SlaveClearReadBuf();
 136:i2cKommunikation.c **** //                                    return 1;
 137:i2cKommunikation.c **** //                                }
 138:i2cKommunikation.c **** //                            else if(wrBuf[2] == 0b00000010) // hvis der er valgt 2 øl
 139:i2cKommunikation.c **** //                                {
 140:i2cKommunikation.c **** //                                    rdBuf[0] = 0x2;
ARM GAS  C:\Users\AugustHA\AppData\Local\Temp\ccocuyad.s 			page 7


 141:i2cKommunikation.c **** //                                    I2C_SlaveClearWriteBuf();
 142:i2cKommunikation.c **** //                                    I2C_SlaveClearReadBuf();
 143:i2cKommunikation.c **** //                                    return 2;
 144:i2cKommunikation.c **** //                                }
 145:i2cKommunikation.c **** //                           else if(wrBuf[2] == 0b00000011) // hvis der er valgt 3 øl
 146:i2cKommunikation.c **** //                            {
 147:i2cKommunikation.c **** //                                rdBuf[0] = 0x3;
 148:i2cKommunikation.c **** //                                I2C_SlaveClearWriteBuf();
 149:i2cKommunikation.c **** //                                I2C_SlaveClearReadBuf();
 150:i2cKommunikation.c **** //                                return 3;
 151:i2cKommunikation.c **** //                            }
 152:i2cKommunikation.c **** //                        }
 153:i2cKommunikation.c **** //                    else if(wrBuf[1] == 0b00000010) // hvis der er valgt bord 2
 154:i2cKommunikation.c **** //                        {
 155:i2cKommunikation.c **** //                            if(wrBuf[2] == 0b00000001) // hvis der er valgt 1 øl
 156:i2cKommunikation.c **** //                                {
 157:i2cKommunikation.c **** //                                    rdBuf[0] = 0x4;
 158:i2cKommunikation.c **** //                                    I2C_SlaveClearWriteBuf();
 159:i2cKommunikation.c **** //                                    I2C_SlaveClearReadBuf();
 160:i2cKommunikation.c **** //                                    return 4;
 161:i2cKommunikation.c **** //                                }
 162:i2cKommunikation.c **** //                            else if(wrBuf[2] == 0b00000010) // hvis der er valgt 2 øl
 163:i2cKommunikation.c **** //                                {
 164:i2cKommunikation.c **** //                                    rdBuf[0] = 0x5;
 165:i2cKommunikation.c **** //                                    I2C_SlaveClearWriteBuf();
 166:i2cKommunikation.c **** //                                    I2C_SlaveClearReadBuf();
 167:i2cKommunikation.c **** //                                    return 5;
 168:i2cKommunikation.c **** //                                }
 169:i2cKommunikation.c **** //                           else if(wrBuf[2] == 0b00000011) // hvis der er valgt 3 øl
 170:i2cKommunikation.c **** //                            {
 171:i2cKommunikation.c **** //                                rdBuf[0] = 0x6;
 172:i2cKommunikation.c **** //                                I2C_SlaveClearWriteBuf();
 173:i2cKommunikation.c **** //                                I2C_SlaveClearReadBuf();
 174:i2cKommunikation.c **** //                                return 6;
 175:i2cKommunikation.c **** //                            }
 176:i2cKommunikation.c **** //                            else
 177:i2cKommunikation.c **** //                            {
 178:i2cKommunikation.c **** //                                I2C_SlaveClearWriteBuf();
 179:i2cKommunikation.c **** //                                I2C_SlaveClearReadBuf();
 180:i2cKommunikation.c **** //                                return 0;
 181:i2cKommunikation.c **** //                            }
 182:i2cKommunikation.c **** //                        }
 183:i2cKommunikation.c **** //                    else
 184:i2cKommunikation.c **** //                        {
 185:i2cKommunikation.c **** //                            I2C_SlaveClearWriteBuf();
 186:i2cKommunikation.c **** //                            I2C_SlaveClearReadBuf();
 187:i2cKommunikation.c **** //                            return 0;
 188:i2cKommunikation.c **** //                        }
 189:i2cKommunikation.c **** //                }
 190:i2cKommunikation.c **** //            else
 191:i2cKommunikation.c **** //            {
 192:i2cKommunikation.c **** //                I2C_SlaveClearWriteBuf(); 
 193:i2cKommunikation.c **** //                I2C_SlaveClearReadBuf();
 194:i2cKommunikation.c **** //                return 0;
 195:i2cKommunikation.c **** //            }
 196:i2cKommunikation.c **** //            I2C_SlaveClearWriteBuf(); 
 197:i2cKommunikation.c ****          }
ARM GAS  C:\Users\AugustHA\AppData\Local\Temp\ccocuyad.s 			page 8


 198:i2cKommunikation.c ****     return 0;
 203              		.loc 1 198 0
 204 00ba 0020     		movs	r0, #0
 205 00bc 10BD     		pop	{r4, pc}
 206              	.L20:
 207 00be 0020     		movs	r0, #0
 208 00c0 10BD     		pop	{r4, pc}
 209              	.L21:
 210 00c2 0020     		movs	r0, #0
 211 00c4 10BD     		pop	{r4, pc}
 212              	.L22:
 213 00c6 0020     		movs	r0, #0
 199:i2cKommunikation.c **** }
 214              		.loc 1 199 0
 215 00c8 10BD     		pop	{r4, pc}
 216              	.L25:
 217 00ca 00BF     		.align	2
 218              	.L24:
 219 00cc 00000000 		.word	byteCnt
 220 00d0 00000000 		.word	wrBuf
 221 00d4 00000000 		.word	rdBuf
 222              		.cfi_endproc
 223              	.LFE64:
 224              		.size	I2C_Kommunikation, .-I2C_Kommunikation
 225              		.comm	i,1,1
 226              		.comm	rdBuf,8,4
 227              		.comm	wrBuf,8,4
 228              		.comm	byteCnt,1,1
 229              		.text
 230              	.Letext0:
 231              		.file 2 "c:\\program files (x86)\\cypress\\psoc creator\\4.3\\psoc creator\\import\\gnu\\arm\\5.4.
 232              		.file 3 "c:\\program files (x86)\\cypress\\psoc creator\\4.3\\psoc creator\\import\\gnu\\arm\\5.4.
 233              		.file 4 "Generated_Source\\PSoC5/cytypes.h"
 234              		.file 5 "Generated_Source\\PSoC5/core_cm3.h"
 235              		.file 6 "Generated_Source\\PSoC5/I2C.h"