ARM GAS  C:\Users\AugustHA\AppData\Local\Temp\ccgejQC3.s 			page 1


   1              		.syntax unified
   2              		.cpu cortex-m3
   3              		.fpu softvfp
   4              		.eabi_attribute 20, 1
   5              		.eabi_attribute 21, 1
   6              		.eabi_attribute 23, 3
   7              		.eabi_attribute 24, 1
   8              		.eabi_attribute 25, 1
   9              		.eabi_attribute 26, 1
  10              		.eabi_attribute 30, 1
  11              		.eabi_attribute 34, 1
  12              		.eabi_attribute 18, 4
  13              		.thumb
  14              		.syntax unified
  15              		.file	"main.c"
  16              		.text
  17              	.Ltext0:
  18              		.cfi_sections	.debug_frame
  19              		.section	.text.handleOrderReceived,"ax",%progbits
  20              		.align	2
  21              		.global	handleOrderReceived
  22              		.thumb
  23              		.thumb_func
  24              		.type	handleOrderReceived, %function
  25              	handleOrderReceived:
  26              	.LFB63:
  27              		.file 1 "main.c"
   1:main.c        **** /* ========================================
   2:main.c        ****  *
   3:main.c        ****  * Copyright YOUR COMPANY, THE YEAR
   4:main.c        ****  * All Rights Reserved
   5:main.c        ****  * UNPUBLISHED, LICENSED SOFTWARE.
   6:main.c        ****  *
   7:main.c        ****  * CONFIDENTIAL AND PROPRIETARY INFORMATION
   8:main.c        ****  * WHICH IS THE PROPERTY OF your company.
   9:main.c        ****  *
  10:main.c        ****  * ========================================
  11:main.c        **** */
  12:main.c        **** #include "project.h"
  13:main.c        **** 
  14:main.c        **** // Includes af bibloteker
  15:main.c        **** #include "motorStyring.h"
  16:main.c        **** //#include "Scale.h"
  17:main.c        **** //#include "colorSensor.h"
  18:main.c        **** #include "i2cKommunikation.h"
  19:main.c        **** #include "Afstandssensor.h"
  20:main.c        **** 
  21:main.c        **** int distance;
  22:main.c        **** 
  23:main.c        **** //float fustageKg;
  24:main.c        **** //
  25:main.c        **** void handleOrderReceived(uint8_t orderReceived)
  26:main.c        **** {
  28              		.loc 1 26 0
  29              		.cfi_startproc
  30              		@ args = 0, pretend = 0, frame = 0
  31              		@ frame_needed = 0, uses_anonymous_args = 0
ARM GAS  C:\Users\AugustHA\AppData\Local\Temp\ccgejQC3.s 			page 2


  32              	.LVL0:
  33 0000 08B5     		push	{r3, lr}
  34              		.cfi_def_cfa_offset 8
  35              		.cfi_offset 3, -8
  36              		.cfi_offset 14, -4
  27:main.c        ****     switch(orderReceived)
  37              		.loc 1 27 0
  38 0002 0138     		subs	r0, r0, #1
  39              	.LVL1:
  40 0004 0528     		cmp	r0, #5
  41 0006 00F28880 		bhi	.L1
  42 000a DFE800F0 		tbb	[pc, r0]
  43              	.L4:
  44 000e 03       		.byte	(.L3-.L4)/2
  45 000f 19       		.byte	(.L5-.L4)/2
  46 0010 2F       		.byte	(.L6-.L4)/2
  47 0011 45       		.byte	(.L7-.L4)/2
  48 0012 5B       		.byte	(.L8-.L4)/2
  49 0013 71       		.byte	(.L9-.L4)/2
  50              		.p2align 1
  51              	.L3:
  28:main.c        ****     {
  29:main.c        ****         case 1:
  30:main.c        ****         {
  31:main.c        ****             Done_Write(0);
  52              		.loc 1 31 0
  53 0014 0020     		movs	r0, #0
  54 0016 FFF7FEFF 		bl	Done_Write
  55              	.LVL2:
  32:main.c        ****             driveForward();
  56              		.loc 1 32 0
  57 001a FFF7FEFF 		bl	driveForward
  58              	.LVL3:
  33:main.c        ****             CyDelay(2000);
  59              		.loc 1 33 0
  60 001e 4FF4FA60 		mov	r0, #2000
  61 0022 FFF7FEFF 		bl	CyDelay
  62              	.LVL4:
  34:main.c        ****             Done_Write(1);
  63              		.loc 1 34 0
  64 0026 0120     		movs	r0, #1
  65 0028 FFF7FEFF 		bl	Done_Write
  66              	.LVL5:
  35:main.c        ****             driveStop();
  67              		.loc 1 35 0
  68 002c FFF7FEFF 		bl	driveStop
  69              	.LVL6:
  36:main.c        ****             CyDelay(500);
  70              		.loc 1 36 0
  71 0030 4FF4FA70 		mov	r0, #500
  72 0034 FFF7FEFF 		bl	CyDelay
  73              	.LVL7:
  37:main.c        ****             Done_Write(0);
  74              		.loc 1 37 0
  75 0038 0020     		movs	r0, #0
  76 003a FFF7FEFF 		bl	Done_Write
  77              	.LVL8:
ARM GAS  C:\Users\AugustHA\AppData\Local\Temp\ccgejQC3.s 			page 3


  38:main.c        ****             break;
  78              		.loc 1 38 0
  79 003e 08BD     		pop	{r3, pc}
  80              	.L5:
  39:main.c        ****         }
  40:main.c        ****         case 2:
  41:main.c        ****         {
  42:main.c        ****             Done_Write(0);
  81              		.loc 1 42 0
  82 0040 0020     		movs	r0, #0
  83 0042 FFF7FEFF 		bl	Done_Write
  84              	.LVL9:
  43:main.c        ****             driveForward();
  85              		.loc 1 43 0
  86 0046 FFF7FEFF 		bl	driveForward
  87              	.LVL10:
  44:main.c        ****             CyDelay(5000);
  88              		.loc 1 44 0
  89 004a 41F28830 		movw	r0, #5000
  90 004e FFF7FEFF 		bl	CyDelay
  91              	.LVL11:
  45:main.c        ****             Done_Write(1);
  92              		.loc 1 45 0
  93 0052 0120     		movs	r0, #1
  94 0054 FFF7FEFF 		bl	Done_Write
  95              	.LVL12:
  46:main.c        ****             driveStop();
  96              		.loc 1 46 0
  97 0058 FFF7FEFF 		bl	driveStop
  98              	.LVL13:
  47:main.c        ****             CyDelay(500);
  99              		.loc 1 47 0
 100 005c 4FF4FA70 		mov	r0, #500
 101 0060 FFF7FEFF 		bl	CyDelay
 102              	.LVL14:
  48:main.c        ****             Done_Write(0);
 103              		.loc 1 48 0
 104 0064 0020     		movs	r0, #0
 105 0066 FFF7FEFF 		bl	Done_Write
 106              	.LVL15:
  49:main.c        ****             break;
 107              		.loc 1 49 0
 108 006a 08BD     		pop	{r3, pc}
 109              	.L6:
  50:main.c        ****         }
  51:main.c        ****         case 3:
  52:main.c        ****         {
  53:main.c        ****             Done_Write(0);
 110              		.loc 1 53 0
 111 006c 0020     		movs	r0, #0
 112 006e FFF7FEFF 		bl	Done_Write
 113              	.LVL16:
  54:main.c        ****             driveForward();
 114              		.loc 1 54 0
 115 0072 FFF7FEFF 		bl	driveForward
 116              	.LVL17:
  55:main.c        ****             CyDelay(10000);
ARM GAS  C:\Users\AugustHA\AppData\Local\Temp\ccgejQC3.s 			page 4


 117              		.loc 1 55 0
 118 0076 42F21070 		movw	r0, #10000
 119 007a FFF7FEFF 		bl	CyDelay
 120              	.LVL18:
  56:main.c        ****             Done_Write(1);
 121              		.loc 1 56 0
 122 007e 0120     		movs	r0, #1
 123 0080 FFF7FEFF 		bl	Done_Write
 124              	.LVL19:
  57:main.c        ****             driveStop();
 125              		.loc 1 57 0
 126 0084 FFF7FEFF 		bl	driveStop
 127              	.LVL20:
  58:main.c        ****             CyDelay(500);
 128              		.loc 1 58 0
 129 0088 4FF4FA70 		mov	r0, #500
 130 008c FFF7FEFF 		bl	CyDelay
 131              	.LVL21:
  59:main.c        ****             Done_Write(0);
 132              		.loc 1 59 0
 133 0090 0020     		movs	r0, #0
 134 0092 FFF7FEFF 		bl	Done_Write
 135              	.LVL22:
  60:main.c        ****             break;
 136              		.loc 1 60 0
 137 0096 08BD     		pop	{r3, pc}
 138              	.L7:
  61:main.c        ****         }
  62:main.c        ****         case 4:
  63:main.c        ****         {
  64:main.c        ****             Done_Write(0);
 139              		.loc 1 64 0
 140 0098 0020     		movs	r0, #0
 141 009a FFF7FEFF 		bl	Done_Write
 142              	.LVL23:
  65:main.c        ****             driveBackward();
 143              		.loc 1 65 0
 144 009e FFF7FEFF 		bl	driveBackward
 145              	.LVL24:
  66:main.c        ****             CyDelay(2000);
 146              		.loc 1 66 0
 147 00a2 4FF4FA60 		mov	r0, #2000
 148 00a6 FFF7FEFF 		bl	CyDelay
 149              	.LVL25:
  67:main.c        ****             Done_Write(1);
 150              		.loc 1 67 0
 151 00aa 0120     		movs	r0, #1
 152 00ac FFF7FEFF 		bl	Done_Write
 153              	.LVL26:
  68:main.c        ****             driveStop();
 154              		.loc 1 68 0
 155 00b0 FFF7FEFF 		bl	driveStop
 156              	.LVL27:
  69:main.c        ****             CyDelay(500);
 157              		.loc 1 69 0
 158 00b4 4FF4FA70 		mov	r0, #500
 159 00b8 FFF7FEFF 		bl	CyDelay
ARM GAS  C:\Users\AugustHA\AppData\Local\Temp\ccgejQC3.s 			page 5


 160              	.LVL28:
  70:main.c        ****             Done_Write(0);
 161              		.loc 1 70 0
 162 00bc 0020     		movs	r0, #0
 163 00be FFF7FEFF 		bl	Done_Write
 164              	.LVL29:
  71:main.c        ****             break;
 165              		.loc 1 71 0
 166 00c2 08BD     		pop	{r3, pc}
 167              	.L8:
  72:main.c        ****         }
  73:main.c        ****         case 5:
  74:main.c        ****         {
  75:main.c        ****             Done_Write(0);
 168              		.loc 1 75 0
 169 00c4 0020     		movs	r0, #0
 170 00c6 FFF7FEFF 		bl	Done_Write
 171              	.LVL30:
  76:main.c        ****             driveBackward();
 172              		.loc 1 76 0
 173 00ca FFF7FEFF 		bl	driveBackward
 174              	.LVL31:
  77:main.c        ****             CyDelay(5000);
 175              		.loc 1 77 0
 176 00ce 41F28830 		movw	r0, #5000
 177 00d2 FFF7FEFF 		bl	CyDelay
 178              	.LVL32:
  78:main.c        ****             Done_Write(1);
 179              		.loc 1 78 0
 180 00d6 0120     		movs	r0, #1
 181 00d8 FFF7FEFF 		bl	Done_Write
 182              	.LVL33:
  79:main.c        ****             driveStop();
 183              		.loc 1 79 0
 184 00dc FFF7FEFF 		bl	driveStop
 185              	.LVL34:
  80:main.c        ****             CyDelay(500);
 186              		.loc 1 80 0
 187 00e0 4FF4FA70 		mov	r0, #500
 188 00e4 FFF7FEFF 		bl	CyDelay
 189              	.LVL35:
  81:main.c        ****             Done_Write(0);
 190              		.loc 1 81 0
 191 00e8 0020     		movs	r0, #0
 192 00ea FFF7FEFF 		bl	Done_Write
 193              	.LVL36:
  82:main.c        ****             break;
 194              		.loc 1 82 0
 195 00ee 08BD     		pop	{r3, pc}
 196              	.L9:
  83:main.c        ****         }
  84:main.c        ****         case 6:
  85:main.c        ****         {
  86:main.c        ****             Done_Write(0);
 197              		.loc 1 86 0
 198 00f0 0020     		movs	r0, #0
 199 00f2 FFF7FEFF 		bl	Done_Write
ARM GAS  C:\Users\AugustHA\AppData\Local\Temp\ccgejQC3.s 			page 6


 200              	.LVL37:
  87:main.c        ****             driveBackward();
 201              		.loc 1 87 0
 202 00f6 FFF7FEFF 		bl	driveBackward
 203              	.LVL38:
  88:main.c        ****             CyDelay(10000);
 204              		.loc 1 88 0
 205 00fa 42F21070 		movw	r0, #10000
 206 00fe FFF7FEFF 		bl	CyDelay
 207              	.LVL39:
  89:main.c        ****             Done_Write(1);
 208              		.loc 1 89 0
 209 0102 0120     		movs	r0, #1
 210 0104 FFF7FEFF 		bl	Done_Write
 211              	.LVL40:
  90:main.c        ****             driveStop();
 212              		.loc 1 90 0
 213 0108 FFF7FEFF 		bl	driveStop
 214              	.LVL41:
  91:main.c        ****             CyDelay(500);
 215              		.loc 1 91 0
 216 010c 4FF4FA70 		mov	r0, #500
 217 0110 FFF7FEFF 		bl	CyDelay
 218              	.LVL42:
  92:main.c        ****             Done_Write(0);
 219              		.loc 1 92 0
 220 0114 0020     		movs	r0, #0
 221 0116 FFF7FEFF 		bl	Done_Write
 222              	.LVL43:
 223              	.L1:
 224 011a 08BD     		pop	{r3, pc}
 225              		.cfi_endproc
 226              	.LFE63:
 227              		.size	handleOrderReceived, .-handleOrderReceived
 228              		.section	.text.main,"ax",%progbits
 229              		.align	2
 230              		.global	main
 231              		.thumb
 232              		.thumb_func
 233              		.type	main, %function
 234              	main:
 235              	.LFB64:
  93:main.c        ****             break;
  94:main.c        ****         }
  95:main.c        ****         default:
  96:main.c        ****         break;
  97:main.c        ****     }
  98:main.c        **** }
  99:main.c        **** 
 100:main.c        **** 
 101:main.c        **** int main(void)
 102:main.c        **** {
 236              		.loc 1 102 0
 237              		.cfi_startproc
 238              		@ args = 0, pretend = 0, frame = 0
 239              		@ frame_needed = 0, uses_anonymous_args = 0
 240 0000 08B5     		push	{r3, lr}
ARM GAS  C:\Users\AugustHA\AppData\Local\Temp\ccgejQC3.s 			page 7


 241              		.cfi_def_cfa_offset 8
 242              		.cfi_offset 3, -8
 243              		.cfi_offset 14, -4
 103:main.c        ****     CyGlobalIntEnable; /* Enable global interrupts. */
 244              		.loc 1 103 0
 245              		.syntax unified
 246              	@ 103 "main.c" 1
 247 0002 62B6     		CPSIE   i
 248              	@ 0 "" 2
 104:main.c        ****     
 105:main.c        ****     //inits
 106:main.c        ****     init_i2c(); // I2C kommunikation
 249              		.loc 1 106 0
 250              		.thumb
 251              		.syntax unified
 252 0004 FFF7FEFF 		bl	init_i2c
 253              	.LVL44:
 107:main.c        ****     initMotor(); //Motor
 254              		.loc 1 107 0
 255 0008 FFF7FEFF 		bl	initMotor
 256              	.LVL45:
 257              	.L12:
 258              	.LBB2:
 108:main.c        ****     //ADC_init();  //Vægtsensor
 109:main.c        ****     //color_init_start(); //Colorsensor
 110:main.c        ****     //initDistSens(); // Afstandssensor
 111:main.c        ****     
 112:main.c        ****     //fustageKg = ADC_Measure(); // Måling af nuværende kg
 113:main.c        ****     
 114:main.c        ****     // Send vægt info til I2C så RPI kan sende til personale grænseflade
 115:main.c        **** 
 116:main.c        ****  
 117:main.c        ****     
 118:main.c        ****     for(;;)  //Ordre loop
 119:main.c        ****     {
 120:main.c        ****         //driveForward();
 121:main.c        ****         uint8 i = I2C_Kommunikation();  // Få besked fra I2C RPI
 259              		.loc 1 121 0 discriminator 1
 260 000c FFF7FEFF 		bl	I2C_Kommunikation
 261              	.LVL46:
 122:main.c        ****         handleOrderReceived(i);  // Handler
 262              		.loc 1 122 0 discriminator 1
 263 0010 FFF7FEFF 		bl	handleOrderReceived
 264              	.LVL47:
 265 0014 FAE7     		b	.L12
 266              	.LBE2:
 267              		.cfi_endproc
 268              	.LFE64:
 269              		.size	main, .-main
 270              		.comm	distance,4,4
 271 0016 00BF     		.text
 272              	.Letext0:
 273              		.file 2 "c:\\program files (x86)\\cypress\\psoc creator\\4.3\\psoc creator\\import\\gnu\\arm\\5.4.
 274              		.file 3 "c:\\program files (x86)\\cypress\\psoc creator\\4.3\\psoc creator\\import\\gnu\\arm\\5.4.
 275              		.file 4 "Generated_Source\\PSoC5/cytypes.h"
 276              		.file 5 "Generated_Source\\PSoC5/core_cm3.h"
 277              		.file 6 "Generated_Source\\PSoC5/Done.h"
ARM GAS  C:\Users\AugustHA\AppData\Local\Temp\ccgejQC3.s 			page 8


 278              		.file 7 "motorStyring.h"
 279              		.file 8 "Generated_Source\\PSoC5/CyLib.h"
 280              		.file 9 "i2cKommunikation.h"