ARM GAS  C:\Users\Simon\AppData\Local\Temp\ccXpcHIm.s 			page 1


   1              		.syntax unified
   2              		.cpu cortex-m3
   3              		.fpu softvfp
   4              		.eabi_attribute 20, 1
   5              		.eabi_attribute 21, 1
   6              		.eabi_attribute 23, 3
   7              		.eabi_attribute 24, 1
   8              		.eabi_attribute 25, 1
   9              		.eabi_attribute 26, 1
  10              		.eabi_attribute 30, 1
  11              		.eabi_attribute 34, 1
  12              		.eabi_attribute 18, 4
  13              		.thumb
  14              		.syntax unified
  15              		.file	"Afstandssensor.c"
  16              		.text
  17              	.Ltext0:
  18              		.cfi_sections	.debug_frame
  19              		.section	.text.Timer_int_Handler,"ax",%progbits
  20              		.align	2
  21              		.global	Timer_int_Handler
  22              		.thumb
  23              		.thumb_func
  24              		.type	Timer_int_Handler, %function
  25              	Timer_int_Handler:
  26              	.LFB66:
  27              		.file 1 "Afstandssensor.c"
   1:Afstandssensor.c **** /* ========================================
   2:Afstandssensor.c ****  *
   3:Afstandssensor.c ****  * Copyright YOUR COMPANY, THE YEAR
   4:Afstandssensor.c ****  * All Rights Reserved
   5:Afstandssensor.c ****  * UNPUBLISHED, LICENSED SOFTWARE.
   6:Afstandssensor.c ****  *
   7:Afstandssensor.c ****  * CONFIDENTIAL AND PROPRIETARY INFORMATION
   8:Afstandssensor.c ****  * WHICH IS THE PROPERTY OF your company.
   9:Afstandssensor.c ****  *
  10:Afstandssensor.c ****  * ========================================
  11:Afstandssensor.c **** */
  12:Afstandssensor.c **** #include "project.h"
  13:Afstandssensor.c **** #include <stdio.h>
  14:Afstandssensor.c **** #include <stdlib.h>
  15:Afstandssensor.c **** 
  16:Afstandssensor.c **** int distance;
  17:Afstandssensor.c **** CY_ISR_PROTO(Timer_int_Handler);
  18:Afstandssensor.c **** 
  19:Afstandssensor.c **** 
  20:Afstandssensor.c **** void initDistSens()
  21:Afstandssensor.c **** {
  22:Afstandssensor.c ****     PWM_Trigger_Start();
  23:Afstandssensor.c ****     Timer_1_Start();
  24:Afstandssensor.c ****     Timer_int_1_StartEx(Timer_int_Handler);
  25:Afstandssensor.c **** }
  26:Afstandssensor.c **** 
  27:Afstandssensor.c **** int calcDist()
  28:Afstandssensor.c **** {
  29:Afstandssensor.c ****     distance = (65535 - Timer_ReadCapture()) * 0.017;
  30:Afstandssensor.c ****     return distance;
ARM GAS  C:\Users\Simon\AppData\Local\Temp\ccXpcHIm.s 			page 2


  31:Afstandssensor.c **** }
  32:Afstandssensor.c **** 
  33:Afstandssensor.c **** CY_ISR(Timer_int_Handler)
  34:Afstandssensor.c **** {
  28              		.loc 1 34 0
  29              		.cfi_startproc
  30              		@ args = 0, pretend = 0, frame = 0
  31              		@ frame_needed = 0, uses_anonymous_args = 0
  32 0000 08B5     		push	{r3, lr}
  33              		.cfi_def_cfa_offset 8
  34              		.cfi_offset 3, -8
  35              		.cfi_offset 14, -4
  35:Afstandssensor.c ****     Timer_1_ClearFIFO();
  36              		.loc 1 35 0
  37 0002 FFF7FEFF 		bl	Timer_1_ClearFIFO
  38              	.LVL0:
  39 0006 08BD     		pop	{r3, pc}
  40              		.cfi_endproc
  41              	.LFE66:
  42              		.size	Timer_int_Handler, .-Timer_int_Handler
  43              		.section	.text.initDistSens,"ax",%progbits
  44              		.align	2
  45              		.global	initDistSens
  46              		.thumb
  47              		.thumb_func
  48              		.type	initDistSens, %function
  49              	initDistSens:
  50              	.LFB64:
  21:Afstandssensor.c ****     PWM_Trigger_Start();
  51              		.loc 1 21 0
  52              		.cfi_startproc
  53              		@ args = 0, pretend = 0, frame = 0
  54              		@ frame_needed = 0, uses_anonymous_args = 0
  55 0000 08B5     		push	{r3, lr}
  56              		.cfi_def_cfa_offset 8
  57              		.cfi_offset 3, -8
  58              		.cfi_offset 14, -4
  22:Afstandssensor.c ****     Timer_1_Start();
  59              		.loc 1 22 0
  60 0002 FFF7FEFF 		bl	PWM_Trigger_Start
  61              	.LVL1:
  23:Afstandssensor.c ****     Timer_int_1_StartEx(Timer_int_Handler);
  62              		.loc 1 23 0
  63 0006 FFF7FEFF 		bl	Timer_1_Start
  64              	.LVL2:
  24:Afstandssensor.c **** }
  65              		.loc 1 24 0
  66 000a 0248     		ldr	r0, .L5
  67 000c FFF7FEFF 		bl	Timer_int_1_StartEx
  68              	.LVL3:
  69 0010 08BD     		pop	{r3, pc}
  70              	.L6:
  71 0012 00BF     		.align	2
  72              	.L5:
  73 0014 00000000 		.word	Timer_int_Handler
  74              		.cfi_endproc
  75              	.LFE64:
ARM GAS  C:\Users\Simon\AppData\Local\Temp\ccXpcHIm.s 			page 3


  76              		.size	initDistSens, .-initDistSens
  77              		.global	__aeabi_i2d
  78              		.global	__aeabi_dmul
  79              		.global	__aeabi_d2iz
  80              		.section	.text.calcDist,"ax",%progbits
  81              		.align	2
  82              		.global	calcDist
  83              		.thumb
  84              		.thumb_func
  85              		.type	calcDist, %function
  86              	calcDist:
  87              	.LFB65:
  28:Afstandssensor.c ****     distance = (65535 - Timer_ReadCapture()) * 0.017;
  88              		.loc 1 28 0
  89              		.cfi_startproc
  90              		@ args = 0, pretend = 0, frame = 0
  91              		@ frame_needed = 0, uses_anonymous_args = 0
  92 0000 08B5     		push	{r3, lr}
  93              		.cfi_def_cfa_offset 8
  94              		.cfi_offset 3, -8
  95              		.cfi_offset 14, -4
  29:Afstandssensor.c ****     return distance;
  96              		.loc 1 29 0
  97 0002 FFF7FEFF 		bl	Timer_ReadCapture
  98              	.LVL4:
  99 0006 C0F57F40 		rsb	r0, r0, #65280
 100 000a FF30     		adds	r0, r0, #255
 101 000c FFF7FEFF 		bl	__aeabi_i2d
 102              	.LVL5:
 103 0010 05A3     		adr	r3, .L9
 104 0012 D3E90023 		ldrd	r2, [r3]
 105 0016 FFF7FEFF 		bl	__aeabi_dmul
 106              	.LVL6:
 107 001a FFF7FEFF 		bl	__aeabi_d2iz
 108              	.LVL7:
 109 001e 044B     		ldr	r3, .L9+8
 110 0020 1860     		str	r0, [r3]
  31:Afstandssensor.c **** 
 111              		.loc 1 31 0
 112 0022 08BD     		pop	{r3, pc}
 113              	.L10:
 114 0024 AFF30080 		.align	3
 115              	.L9:
 116 0028 9CC420B0 		.word	-1340029796
 117 002c 7268913F 		.word	1066494066
 118 0030 00000000 		.word	distance
 119              		.cfi_endproc
 120              	.LFE65:
 121              		.size	calcDist, .-calcDist
 122              		.comm	distance,4,4
 123              		.text
 124              	.Letext0:
 125              		.file 2 "c:\\program files (x86)\\cypress\\psoc creator\\4.3\\psoc creator\\import\\gnu\\arm\\5.4.
 126              		.file 3 "c:\\program files (x86)\\cypress\\psoc creator\\4.3\\psoc creator\\import\\gnu\\arm\\5.4.
 127              		.file 4 "Generated_Source\\PSoC5/core_cm3.h"
 128              		.file 5 "Generated_Source\\PSoC5/Timer_1.h"
 129              		.file 6 "Generated_Source\\PSoC5/PWM_Trigger.h"
ARM GAS  C:\Users\Simon\AppData\Local\Temp\ccXpcHIm.s 			page 4


 130              		.file 7 "Generated_Source\\PSoC5/Timer_int_1.h"
 131              		.file 8 "Generated_Source\\PSoC5/Timer.h"