ARM GAS  C:\Users\Simon\AppData\Local\Temp\ccKB8P5g.s 			page 1


   1              		.syntax unified
   2              		.cpu cortex-m3
   3              		.fpu softvfp
   4              		.eabi_attribute 20, 1
   5              		.eabi_attribute 21, 1
   6              		.eabi_attribute 23, 3
   7              		.eabi_attribute 24, 1
   8              		.eabi_attribute 25, 1
   9              		.eabi_attribute 26, 1
  10              		.eabi_attribute 30, 1
  11              		.eabi_attribute 34, 1
  12              		.eabi_attribute 18, 4
  13              		.thumb
  14              		.syntax unified
  15              		.file	"motorStyring.c"
  16              		.text
  17              	.Ltext0:
  18              		.cfi_sections	.debug_frame
  19              		.section	.text.initMotor,"ax",%progbits
  20              		.align	2
  21              		.global	initMotor
  22              		.thumb
  23              		.thumb_func
  24              		.type	initMotor, %function
  25              	initMotor:
  26              	.LFB63:
  27              		.file 1 "motorStyring.c"
   1:motorStyring.c **** /* ========================================
   2:motorStyring.c ****  *
   3:motorStyring.c ****  * Copyright BEERTRESS, 2020
   4:motorStyring.c ****  * All Rights Reserved
   5:motorStyring.c ****  * UNPUBLISHED, LICENSED SOFTWARE.
   6:motorStyring.c ****  *
   7:motorStyring.c ****  * CONFIDENTIAL AND PROPRIETARY INFORMATION
   8:motorStyring.c ****  * WHICH IS THE PROPERTY OF BEERTRESS.
   9:motorStyring.c ****  *
  10:motorStyring.c ****  * ========================================
  11:motorStyring.c **** */
  12:motorStyring.c **** 
  13:motorStyring.c **** #include "motorStyring.h"
  14:motorStyring.c **** #include "project.h"
  15:motorStyring.c **** 
  16:motorStyring.c **** void initMotor()
  17:motorStyring.c **** {
  28              		.loc 1 17 0
  29              		.cfi_startproc
  30              		@ args = 0, pretend = 0, frame = 0
  31              		@ frame_needed = 0, uses_anonymous_args = 0
  32 0000 08B5     		push	{r3, lr}
  33              		.cfi_def_cfa_offset 8
  34              		.cfi_offset 3, -8
  35              		.cfi_offset 14, -4
  18:motorStyring.c ****     PWM1_Start();
  36              		.loc 1 18 0
  37 0002 FFF7FEFF 		bl	PWM1_Start
  38              	.LVL0:
  19:motorStyring.c ****     PWM2_Start();
ARM GAS  C:\Users\Simon\AppData\Local\Temp\ccKB8P5g.s 			page 2


  39              		.loc 1 19 0
  40 0006 FFF7FEFF 		bl	PWM2_Start
  41              	.LVL1:
  42 000a 08BD     		pop	{r3, pc}
  43              		.cfi_endproc
  44              	.LFE63:
  45              		.size	initMotor, .-initMotor
  46              		.section	.text.driveForward,"ax",%progbits
  47              		.align	2
  48              		.global	driveForward
  49              		.thumb
  50              		.thumb_func
  51              		.type	driveForward, %function
  52              	driveForward:
  53              	.LFB64:
  20:motorStyring.c **** }
  21:motorStyring.c **** void driveForward()
  22:motorStyring.c **** {
  54              		.loc 1 22 0
  55              		.cfi_startproc
  56              		@ args = 0, pretend = 0, frame = 0
  57              		@ frame_needed = 0, uses_anonymous_args = 0
  58 0000 08B5     		push	{r3, lr}
  59              		.cfi_def_cfa_offset 8
  60              		.cfi_offset 3, -8
  61              		.cfi_offset 14, -4
  23:motorStyring.c ****     // Sætter direction på DC motor ved hjælp af H-Bro
  24:motorStyring.c ****     in1_Write(1);
  62              		.loc 1 24 0
  63 0002 0120     		movs	r0, #1
  64 0004 FFF7FEFF 		bl	in1_Write
  65              	.LVL2:
  25:motorStyring.c ****     in2_Write(0);
  66              		.loc 1 25 0
  67 0008 0020     		movs	r0, #0
  68 000a FFF7FEFF 		bl	in2_Write
  69              	.LVL3:
  26:motorStyring.c ****     in3_Write(0);
  70              		.loc 1 26 0
  71 000e 0020     		movs	r0, #0
  72 0010 FFF7FEFF 		bl	in3_Write
  73              	.LVL4:
  27:motorStyring.c ****     in4_Write(1);
  74              		.loc 1 27 0
  75 0014 0120     		movs	r0, #1
  76 0016 FFF7FEFF 		bl	in4_Write
  77              	.LVL5:
  28:motorStyring.c ****     // Starter PWM
  29:motorStyring.c ****     PWM1_Start();
  78              		.loc 1 29 0
  79 001a FFF7FEFF 		bl	PWM1_Start
  80              	.LVL6:
  30:motorStyring.c ****     PWM2_Start();
  81              		.loc 1 30 0
  82 001e FFF7FEFF 		bl	PWM2_Start
  83              	.LVL7:
  31:motorStyring.c ****     // Sætter PWM til 100%
ARM GAS  C:\Users\Simon\AppData\Local\Temp\ccKB8P5g.s 			page 3


  32:motorStyring.c ****     PWM2_WriteCompare(100);
  84              		.loc 1 32 0
  85 0022 6420     		movs	r0, #100
  86 0024 FFF7FEFF 		bl	PWM2_WriteCompare
  87              	.LVL8:
  33:motorStyring.c ****     PWM1_WriteCompare(100);
  88              		.loc 1 33 0
  89 0028 6420     		movs	r0, #100
  90 002a FFF7FEFF 		bl	PWM1_WriteCompare
  91              	.LVL9:
  92 002e 08BD     		pop	{r3, pc}
  93              		.cfi_endproc
  94              	.LFE64:
  95              		.size	driveForward, .-driveForward
  96              		.section	.text.driveBackward,"ax",%progbits
  97              		.align	2
  98              		.global	driveBackward
  99              		.thumb
 100              		.thumb_func
 101              		.type	driveBackward, %function
 102              	driveBackward:
 103              	.LFB65:
  34:motorStyring.c **** }
  35:motorStyring.c **** 
  36:motorStyring.c **** void driveBackward()
  37:motorStyring.c **** {   
 104              		.loc 1 37 0
 105              		.cfi_startproc
 106              		@ args = 0, pretend = 0, frame = 0
 107              		@ frame_needed = 0, uses_anonymous_args = 0
 108 0000 08B5     		push	{r3, lr}
 109              		.cfi_def_cfa_offset 8
 110              		.cfi_offset 3, -8
 111              		.cfi_offset 14, -4
  38:motorStyring.c ****     // Sætter direction på DC motor ved hjælp af H-Bro
  39:motorStyring.c ****     in1_Write(0);
 112              		.loc 1 39 0
 113 0002 0020     		movs	r0, #0
 114 0004 FFF7FEFF 		bl	in1_Write
 115              	.LVL10:
  40:motorStyring.c ****     in2_Write(1);
 116              		.loc 1 40 0
 117 0008 0120     		movs	r0, #1
 118 000a FFF7FEFF 		bl	in2_Write
 119              	.LVL11:
  41:motorStyring.c ****     in3_Write(3);
 120              		.loc 1 41 0
 121 000e 0320     		movs	r0, #3
 122 0010 FFF7FEFF 		bl	in3_Write
 123              	.LVL12:
  42:motorStyring.c ****     in4_Write(4);
 124              		.loc 1 42 0
 125 0014 0420     		movs	r0, #4
 126 0016 FFF7FEFF 		bl	in4_Write
 127              	.LVL13:
  43:motorStyring.c ****     // Starter PWM
  44:motorStyring.c ****     PWM1_Start();
ARM GAS  C:\Users\Simon\AppData\Local\Temp\ccKB8P5g.s 			page 4


 128              		.loc 1 44 0
 129 001a FFF7FEFF 		bl	PWM1_Start
 130              	.LVL14:
  45:motorStyring.c ****     PWM2_Start();
 131              		.loc 1 45 0
 132 001e FFF7FEFF 		bl	PWM2_Start
 133              	.LVL15:
  46:motorStyring.c ****     // Sætter PWM til 100%
  47:motorStyring.c ****     PWM2_WriteCompare(100);
 134              		.loc 1 47 0
 135 0022 6420     		movs	r0, #100
 136 0024 FFF7FEFF 		bl	PWM2_WriteCompare
 137              	.LVL16:
  48:motorStyring.c ****     PWM1_WriteCompare(100);
 138              		.loc 1 48 0
 139 0028 6420     		movs	r0, #100
 140 002a FFF7FEFF 		bl	PWM1_WriteCompare
 141              	.LVL17:
 142 002e 08BD     		pop	{r3, pc}
 143              		.cfi_endproc
 144              	.LFE65:
 145              		.size	driveBackward, .-driveBackward
 146              		.section	.text.driveLeft,"ax",%progbits
 147              		.align	2
 148              		.global	driveLeft
 149              		.thumb
 150              		.thumb_func
 151              		.type	driveLeft, %function
 152              	driveLeft:
 153              	.LFB66:
  49:motorStyring.c **** }
  50:motorStyring.c **** 
  51:motorStyring.c **** void driveLeft()
  52:motorStyring.c **** {
 154              		.loc 1 52 0
 155              		.cfi_startproc
 156              		@ args = 0, pretend = 0, frame = 0
 157              		@ frame_needed = 0, uses_anonymous_args = 0
 158 0000 08B5     		push	{r3, lr}
 159              		.cfi_def_cfa_offset 8
 160              		.cfi_offset 3, -8
 161              		.cfi_offset 14, -4
  53:motorStyring.c ****     // Starter PWM i venstre side, stopper PWM i højre.
  54:motorStyring.c ****     PWM1_Start();
 162              		.loc 1 54 0
 163 0002 FFF7FEFF 		bl	PWM1_Start
 164              	.LVL18:
  55:motorStyring.c ****     PWM2_Stop();
 165              		.loc 1 55 0
 166 0006 FFF7FEFF 		bl	PWM2_Stop
 167              	.LVL19:
  56:motorStyring.c ****     // Sætter PWM til 100%
  57:motorStyring.c ****     PWM1_WriteCompare(100);
 168              		.loc 1 57 0
 169 000a 6420     		movs	r0, #100
 170 000c FFF7FEFF 		bl	PWM1_WriteCompare
 171              	.LVL20:
ARM GAS  C:\Users\Simon\AppData\Local\Temp\ccKB8P5g.s 			page 5


 172 0010 08BD     		pop	{r3, pc}
 173              		.cfi_endproc
 174              	.LFE66:
 175              		.size	driveLeft, .-driveLeft
 176 0012 00BF     		.section	.text.driveRight,"ax",%progbits
 177              		.align	2
 178              		.global	driveRight
 179              		.thumb
 180              		.thumb_func
 181              		.type	driveRight, %function
 182              	driveRight:
 183              	.LFB67:
  58:motorStyring.c **** }
  59:motorStyring.c **** 
  60:motorStyring.c **** 
  61:motorStyring.c **** void driveRight()
  62:motorStyring.c **** {
 184              		.loc 1 62 0
 185              		.cfi_startproc
 186              		@ args = 0, pretend = 0, frame = 0
 187              		@ frame_needed = 0, uses_anonymous_args = 0
 188 0000 08B5     		push	{r3, lr}
 189              		.cfi_def_cfa_offset 8
 190              		.cfi_offset 3, -8
 191              		.cfi_offset 14, -4
  63:motorStyring.c ****     // Starter PWM i højre side, stopper PWM i venstre.
  64:motorStyring.c ****     PWM1_Stop();
 192              		.loc 1 64 0
 193 0002 FFF7FEFF 		bl	PWM1_Stop
 194              	.LVL21:
  65:motorStyring.c ****     PWM2_Start();
 195              		.loc 1 65 0
 196 0006 FFF7FEFF 		bl	PWM2_Start
 197              	.LVL22:
  66:motorStyring.c ****     // Sætter PWM til 100%
  67:motorStyring.c ****     PWM2_WriteCompare(100);
 198              		.loc 1 67 0
 199 000a 6420     		movs	r0, #100
 200 000c FFF7FEFF 		bl	PWM2_WriteCompare
 201              	.LVL23:
 202 0010 08BD     		pop	{r3, pc}
 203              		.cfi_endproc
 204              	.LFE67:
 205              		.size	driveRight, .-driveRight
 206 0012 00BF     		.section	.text.driveStop,"ax",%progbits
 207              		.align	2
 208              		.global	driveStop
 209              		.thumb
 210              		.thumb_func
 211              		.type	driveStop, %function
 212              	driveStop:
 213              	.LFB68:
  68:motorStyring.c **** }
  69:motorStyring.c **** 
  70:motorStyring.c **** void driveStop()
  71:motorStyring.c **** {
 214              		.loc 1 71 0
ARM GAS  C:\Users\Simon\AppData\Local\Temp\ccKB8P5g.s 			page 6


 215              		.cfi_startproc
 216              		@ args = 0, pretend = 0, frame = 0
 217              		@ frame_needed = 0, uses_anonymous_args = 0
 218 0000 08B5     		push	{r3, lr}
 219              		.cfi_def_cfa_offset 8
 220              		.cfi_offset 3, -8
 221              		.cfi_offset 14, -4
  72:motorStyring.c ****     // Stopper PWM
  73:motorStyring.c ****     PWM1_Stop();
 222              		.loc 1 73 0
 223 0002 FFF7FEFF 		bl	PWM1_Stop
 224              	.LVL24:
  74:motorStyring.c ****     PWM2_Stop();
 225              		.loc 1 74 0
 226 0006 FFF7FEFF 		bl	PWM2_Stop
 227              	.LVL25:
 228 000a 08BD     		pop	{r3, pc}
 229              		.cfi_endproc
 230              	.LFE68:
 231              		.size	driveStop, .-driveStop
 232              		.text
 233              	.Letext0:
 234              		.file 2 "c:\\program files (x86)\\cypress\\psoc creator\\4.3\\psoc creator\\import\\gnu\\arm\\5.4.
 235              		.file 3 "c:\\program files (x86)\\cypress\\psoc creator\\4.3\\psoc creator\\import\\gnu\\arm\\5.4.
 236              		.file 4 "Generated_Source\\PSoC5/PWM1.h"
 237              		.file 5 "Generated_Source\\PSoC5/PWM2.h"
 238              		.file 6 "Generated_Source\\PSoC5/in1.h"
 239              		.file 7 "Generated_Source\\PSoC5/in2.h"
 240              		.file 8 "Generated_Source\\PSoC5/in3.h"
 241              		.file 9 "Generated_Source\\PSoC5/in4.h"
 242              		.file 10 "Generated_Source\\PSoC5/core_cm3.h"