ARM GAS  C:\Users\shynt\AppData\Local\Temp\ccxjykpB.s 			page 1


   1              		.syntax unified
   2              		.cpu cortex-m3
   3              		.fpu softvfp
   4              		.eabi_attribute 20, 1
   5              		.eabi_attribute 21, 1
   6              		.eabi_attribute 23, 3
   7              		.eabi_attribute 24, 1
   8              		.eabi_attribute 25, 1
   9              		.eabi_attribute 26, 1
  10              		.eabi_attribute 30, 1
  11              		.eabi_attribute 34, 1
  12              		.eabi_attribute 18, 4
  13              		.thumb
  14              		.syntax unified
  15              		.file	"colorSensor.c"
  16              		.text
  17              	.Ltext0:
  18              		.cfi_sections	.debug_frame
  19              		.section	.text.timer_isr,"ax",%progbits
  20              		.align	2
  21              		.global	timer_isr
  22              		.thumb
  23              		.thumb_func
  24              		.type	timer_isr, %function
  25              	timer_isr:
  26              	.LFB64:
  27              		.file 1 "colorSensor.c"
   1:colorSensor.c **** 
   2:colorSensor.c **** /* ========================================
   3:colorSensor.c ****  *
   4:colorSensor.c ****  * Copyright Lucas, 2020
   5:colorSensor.c ****  * All Rights Reserved
   6:colorSensor.c ****  * UNPUBLISHED, LICENSED SOFTWARE.
   7:colorSensor.c ****  *
   8:colorSensor.c ****  * CONFIDENTIAL AND PROPRIETARY INFORMATION
   9:colorSensor.c ****  * WHICH IS THE PROPERTY OF your company.
  10:colorSensor.c ****  *
  11:colorSensor.c ****  * ========================================
  12:colorSensor.c **** */
  13:colorSensor.c **** #include "project.h"
  14:colorSensor.c **** #include <stdio.h>
  15:colorSensor.c **** #include <stdint.h>
  16:colorSensor.c **** #include "colorSensor.h"
  17:colorSensor.c **** 
  18:colorSensor.c **** #define COUNTER_SIZE 10000
  19:colorSensor.c **** uint32_t freq = 0;
  20:colorSensor.c **** int dataReady = 0;
  21:colorSensor.c **** int Counter_cycle = 0;
  22:colorSensor.c **** 
  23:colorSensor.c **** #define STRING_LENGTH 128  
  24:colorSensor.c **** extern char str[] ;
  25:colorSensor.c **** void print(char *str) ;
  26:colorSensor.c **** 
  27:colorSensor.c **** CY_ISR(timer_isr)//Timer i interrupt routine
  28:colorSensor.c **** {
  28              		.loc 1 28 0
  29              		.cfi_startproc
ARM GAS  C:\Users\shynt\AppData\Local\Temp\ccxjykpB.s 			page 2


  30              		@ args = 0, pretend = 0, frame = 0
  31              		@ frame_needed = 0, uses_anonymous_args = 0
  32 0000 10B5     		push	{r4, lr}
  33              		.cfi_def_cfa_offset 8
  34              		.cfi_offset 4, -8
  35              		.cfi_offset 14, -4
  29:colorSensor.c ****     Counter_Stop();
  36              		.loc 1 29 0
  37 0002 FFF7FEFF 		bl	Counter_Stop
  38              	.LVL0:
  30:colorSensor.c ****     Timer_Stop();
  39              		.loc 1 30 0
  40 0006 FFF7FEFF 		bl	Timer_Stop
  41              	.LVL1:
  31:colorSensor.c ****     freq = Counter_ReadCounter();
  42              		.loc 1 31 0
  43 000a FFF7FEFF 		bl	Counter_ReadCounter
  44              	.LVL2:
  45 000e 074C     		ldr	r4, .L3
  32:colorSensor.c ****     freq += Counter_cycle * COUNTER_SIZE;
  46              		.loc 1 32 0
  47 0010 6368     		ldr	r3, [r4, #4]
  48 0012 42F21072 		movw	r2, #10000
  49 0016 02FB0300 		mla	r0, r2, r3, r0
  50 001a 2060     		str	r0, [r4]
  33:colorSensor.c ****     OE_Write(1);
  51              		.loc 1 33 0
  52 001c 0120     		movs	r0, #1
  53 001e FFF7FEFF 		bl	OE_Write
  54              	.LVL3:
  34:colorSensor.c ****     Timer_INT_ClearPending();
  55              		.loc 1 34 0
  56 0022 FFF7FEFF 		bl	Timer_INT_ClearPending
  57              	.LVL4:
  35:colorSensor.c ****     dataReady = 1;
  58              		.loc 1 35 0
  59 0026 0123     		movs	r3, #1
  60 0028 A360     		str	r3, [r4, #8]
  61 002a 10BD     		pop	{r4, pc}
  62              	.L4:
  63              		.align	2
  64              	.L3:
  65 002c 00000000 		.word	.LANCHOR0
  66              		.cfi_endproc
  67              	.LFE64:
  68              		.size	timer_isr, .-timer_isr
  69              		.section	.text.counter_isr,"ax",%progbits
  70              		.align	2
  71              		.global	counter_isr
  72              		.thumb
  73              		.thumb_func
  74              		.type	counter_isr, %function
  75              	counter_isr:
  76              	.LFB65:
  36:colorSensor.c **** }
  37:colorSensor.c **** 
  38:colorSensor.c **** 
ARM GAS  C:\Users\shynt\AppData\Local\Temp\ccxjykpB.s 			page 3


  39:colorSensor.c **** CY_ISR(counter_isr)//Counter i interrupt routine
  40:colorSensor.c **** {
  77              		.loc 1 40 0
  78              		.cfi_startproc
  79              		@ args = 0, pretend = 0, frame = 0
  80              		@ frame_needed = 0, uses_anonymous_args = 0
  81 0000 08B5     		push	{r3, lr}
  82              		.cfi_def_cfa_offset 8
  83              		.cfi_offset 3, -8
  84              		.cfi_offset 14, -4
  41:colorSensor.c ****     Counter_INT_ClearPending();
  85              		.loc 1 41 0
  86 0002 FFF7FEFF 		bl	Counter_INT_ClearPending
  87              	.LVL5:
  42:colorSensor.c ****     Counter_cycle++;
  88              		.loc 1 42 0
  89 0006 024A     		ldr	r2, .L7
  90 0008 5368     		ldr	r3, [r2, #4]
  91 000a 0133     		adds	r3, r3, #1
  92 000c 5360     		str	r3, [r2, #4]
  93 000e 08BD     		pop	{r3, pc}
  94              	.L8:
  95              		.align	2
  96              	.L7:
  97 0010 00000000 		.word	.LANCHOR0
  98              		.cfi_endproc
  99              	.LFE65:
 100              		.size	counter_isr, .-counter_isr
 101              		.section	.text.init_start,"ax",%progbits
 102              		.align	2
 103              		.global	init_start
 104              		.thumb
 105              		.thumb_func
 106              		.type	init_start, %function
 107              	init_start:
 108              	.LFB66:
  43:colorSensor.c **** }
  44:colorSensor.c **** 
  45:colorSensor.c **** void init_start(void)//Starter de indbyggede funktioner fra topdesign: UART, Timer, Counter
  46:colorSensor.c **** {
 109              		.loc 1 46 0
 110              		.cfi_startproc
 111              		@ args = 0, pretend = 0, frame = 0
 112              		@ frame_needed = 0, uses_anonymous_args = 0
 113 0000 08B5     		push	{r3, lr}
 114              		.cfi_def_cfa_offset 8
 115              		.cfi_offset 3, -8
 116              		.cfi_offset 14, -4
  47:colorSensor.c ****     CyGlobalIntEnable;
 117              		.loc 1 47 0
 118              		.syntax unified
 119              	@ 47 "colorSensor.c" 1
 120 0002 62B6     		CPSIE   i
 121              	@ 0 "" 2
  48:colorSensor.c ****     UART_1_Start();
 122              		.loc 1 48 0
 123              		.thumb
ARM GAS  C:\Users\shynt\AppData\Local\Temp\ccxjykpB.s 			page 4


 124              		.syntax unified
 125 0004 FFF7FEFF 		bl	UART_1_Start
 126              	.LVL6:
  49:colorSensor.c ****     Timer_INT_StartEx(timer_isr);
 127              		.loc 1 49 0
 128 0008 0348     		ldr	r0, .L11
 129 000a FFF7FEFF 		bl	Timer_INT_StartEx
 130              	.LVL7:
  50:colorSensor.c ****     Counter_INT_StartEx(counter_isr);
 131              		.loc 1 50 0
 132 000e 0348     		ldr	r0, .L11+4
 133 0010 FFF7FEFF 		bl	Counter_INT_StartEx
 134              	.LVL8:
 135 0014 08BD     		pop	{r3, pc}
 136              	.L12:
 137 0016 00BF     		.align	2
 138              	.L11:
 139 0018 00000000 		.word	timer_isr
 140 001c 00000000 		.word	counter_isr
 141              		.cfi_endproc
 142              	.LFE66:
 143              		.size	init_start, .-init_start
 144              		.section	.text.read_color,"ax",%progbits
 145              		.align	2
 146              		.global	read_color
 147              		.thumb
 148              		.thumb_func
 149              		.type	read_color, %function
 150              	read_color:
 151              	.LFB67:
  51:colorSensor.c **** }
  52:colorSensor.c **** 
  53:colorSensor.c **** void read_color(void)//Omdanner inputs til frekvens vha. counter og timeren
  54:colorSensor.c **** {
 152              		.loc 1 54 0
 153              		.cfi_startproc
 154              		@ args = 0, pretend = 0, frame = 0
 155              		@ frame_needed = 0, uses_anonymous_args = 0
 156 0000 08B5     		push	{r3, lr}
 157              		.cfi_def_cfa_offset 8
 158              		.cfi_offset 3, -8
 159              		.cfi_offset 14, -4
  55:colorSensor.c ****     OE_Write(0);
 160              		.loc 1 55 0
 161 0002 0020     		movs	r0, #0
 162 0004 FFF7FEFF 		bl	OE_Write
 163              	.LVL9:
  56:colorSensor.c ****     Control_Reg_Write(1);
 164              		.loc 1 56 0
 165 0008 0120     		movs	r0, #1
 166 000a FFF7FEFF 		bl	Control_Reg_Write
 167              	.LVL10:
  57:colorSensor.c ****     CyDelay(1);
 168              		.loc 1 57 0
 169 000e 0120     		movs	r0, #1
 170 0010 FFF7FEFF 		bl	CyDelay
 171              	.LVL11:
ARM GAS  C:\Users\shynt\AppData\Local\Temp\ccxjykpB.s 			page 5


  58:colorSensor.c ****     Control_Reg_Write(0);
 172              		.loc 1 58 0
 173 0014 0020     		movs	r0, #0
 174 0016 FFF7FEFF 		bl	Control_Reg_Write
 175              	.LVL12:
  59:colorSensor.c ****     dataReady = 0;
 176              		.loc 1 59 0
 177 001a 074B     		ldr	r3, .L15
 178 001c 0022     		movs	r2, #0
 179 001e 9A60     		str	r2, [r3, #8]
  60:colorSensor.c ****     Counter_cycle = 0;
 180              		.loc 1 60 0
 181 0020 5A60     		str	r2, [r3, #4]
  61:colorSensor.c ****     Counter_Start();
 182              		.loc 1 61 0
 183 0022 FFF7FEFF 		bl	Counter_Start
 184              	.LVL13:
  62:colorSensor.c ****     Timer_INT_StartEx(timer_isr);
 185              		.loc 1 62 0
 186 0026 0548     		ldr	r0, .L15+4
 187 0028 FFF7FEFF 		bl	Timer_INT_StartEx
 188              	.LVL14:
  63:colorSensor.c ****     Counter_INT_StartEx(counter_isr);
 189              		.loc 1 63 0
 190 002c 0448     		ldr	r0, .L15+8
 191 002e FFF7FEFF 		bl	Counter_INT_StartEx
 192              	.LVL15:
  64:colorSensor.c ****     
  65:colorSensor.c ****     Timer_Start();
 193              		.loc 1 65 0
 194 0032 FFF7FEFF 		bl	Timer_Start
 195              	.LVL16:
 196 0036 08BD     		pop	{r3, pc}
 197              	.L16:
 198              		.align	2
 199              	.L15:
 200 0038 00000000 		.word	.LANCHOR0
 201 003c 00000000 		.word	timer_isr
 202 0040 00000000 		.word	counter_isr
 203              		.cfi_endproc
 204              	.LFE67:
 205              		.size	read_color, .-read_color
 206              		.section	.text.get_freq,"ax",%progbits
 207              		.align	2
 208              		.global	get_freq
 209              		.thumb
 210              		.thumb_func
 211              		.type	get_freq, %function
 212              	get_freq:
 213              	.LFB68:
  66:colorSensor.c **** }
  67:colorSensor.c **** 
  68:colorSensor.c **** int get_freq(char color)//Modtager input på baggrund af indstillinger for farvefilter samt scaling
  69:colorSensor.c **** {
 214              		.loc 1 69 0
 215              		.cfi_startproc
 216              		@ args = 0, pretend = 0, frame = 0
ARM GAS  C:\Users\shynt\AppData\Local\Temp\ccxjykpB.s 			page 6


 217              		@ frame_needed = 0, uses_anonymous_args = 0
 218              	.LVL17:
 219 0000 10B5     		push	{r4, lr}
 220              		.cfi_def_cfa_offset 8
 221              		.cfi_offset 4, -8
 222              		.cfi_offset 14, -4
 223 0002 0446     		mov	r4, r0
  70:colorSensor.c ****     //scaling 2%
  71:colorSensor.c ****     S0_Write(0);
 224              		.loc 1 71 0
 225 0004 0020     		movs	r0, #0
 226              	.LVL18:
 227 0006 FFF7FEFF 		bl	S0_Write
 228              	.LVL19:
  72:colorSensor.c ****     S1_Write(1);
 229              		.loc 1 72 0
 230 000a 0120     		movs	r0, #1
 231 000c FFF7FEFF 		bl	S1_Write
 232              	.LVL20:
  73:colorSensor.c ****     
  74:colorSensor.c ****    if(color=='r')//Rød farve-filter tilføjes og frekvensen registeres
 233              		.loc 1 74 0
 234 0010 722C     		cmp	r4, #114
 235 0012 08D1     		bne	.L18
  75:colorSensor.c ****     {   
  76:colorSensor.c ****         S2_Write(0);
 236              		.loc 1 76 0
 237 0014 0020     		movs	r0, #0
 238 0016 FFF7FEFF 		bl	S2_Write
 239              	.LVL21:
  77:colorSensor.c ****         S3_Write(0);
 240              		.loc 1 77 0
 241 001a 0020     		movs	r0, #0
 242 001c FFF7FEFF 		bl	S3_Write
 243              	.LVL22:
  78:colorSensor.c ****         read_color();
 244              		.loc 1 78 0
 245 0020 FFF7FEFF 		bl	read_color
 246              	.LVL23:
 247 0024 1FE0     		b	.L22
 248              	.L18:
  79:colorSensor.c ****     }
  80:colorSensor.c ****     
  81:colorSensor.c ****     else if(color=='g')//Grøn farve-filter tilføjes og frekvensen registeres
 249              		.loc 1 81 0
 250 0026 672C     		cmp	r4, #103
 251 0028 08D1     		bne	.L20
  82:colorSensor.c ****     { 
  83:colorSensor.c ****         S2_Write(1);
 252              		.loc 1 83 0
 253 002a 0120     		movs	r0, #1
 254 002c FFF7FEFF 		bl	S2_Write
 255              	.LVL24:
  84:colorSensor.c ****         S3_Write(1);
 256              		.loc 1 84 0
 257 0030 0120     		movs	r0, #1
 258 0032 FFF7FEFF 		bl	S3_Write
ARM GAS  C:\Users\shynt\AppData\Local\Temp\ccxjykpB.s 			page 7


 259              	.LVL25:
  85:colorSensor.c ****         read_color();
 260              		.loc 1 85 0
 261 0036 FFF7FEFF 		bl	read_color
 262              	.LVL26:
 263 003a 14E0     		b	.L22
 264              	.L20:
  86:colorSensor.c ****     }
  87:colorSensor.c ****     
  88:colorSensor.c ****     else if(color=='b')//Blå farve-filter tilføjes og frekvensen registeres
 265              		.loc 1 88 0
 266 003c 622C     		cmp	r4, #98
 267 003e 08D1     		bne	.L21
  89:colorSensor.c ****     {
  90:colorSensor.c ****         S2_Write(0);
 268              		.loc 1 90 0
 269 0040 0020     		movs	r0, #0
 270 0042 FFF7FEFF 		bl	S2_Write
 271              	.LVL27:
  91:colorSensor.c ****         S3_Write(1);
 272              		.loc 1 91 0
 273 0046 0120     		movs	r0, #1
 274 0048 FFF7FEFF 		bl	S3_Write
 275              	.LVL28:
  92:colorSensor.c ****         read_color();
 276              		.loc 1 92 0
 277 004c FFF7FEFF 		bl	read_color
 278              	.LVL29:
 279 0050 09E0     		b	.L22
 280              	.L21:
  93:colorSensor.c ****     }
  94:colorSensor.c ****     else if(color=='c')//'Clear' farve-filter tilføjes og frekvensen registeres
 281              		.loc 1 94 0
 282 0052 632C     		cmp	r4, #99
 283 0054 07D1     		bne	.L22
  95:colorSensor.c ****     {
  96:colorSensor.c ****         S2_Write(1);
 284              		.loc 1 96 0
 285 0056 0120     		movs	r0, #1
 286 0058 FFF7FEFF 		bl	S2_Write
 287              	.LVL30:
  97:colorSensor.c ****         S3_Write(0);
 288              		.loc 1 97 0
 289 005c 0020     		movs	r0, #0
 290 005e FFF7FEFF 		bl	S3_Write
 291              	.LVL31:
  98:colorSensor.c ****         read_color();
 292              		.loc 1 98 0
 293 0062 FFF7FEFF 		bl	read_color
 294              	.LVL32:
 295              	.L22:
  99:colorSensor.c ****     }
 100:colorSensor.c ****     
 101:colorSensor.c ****    
 102:colorSensor.c ****     
 103:colorSensor.c ****     while(!dataReady)
 296              		.loc 1 103 0 discriminator 1
ARM GAS  C:\Users\shynt\AppData\Local\Temp\ccxjykpB.s 			page 8


 297 0066 034B     		ldr	r3, .L24
 298 0068 9B68     		ldr	r3, [r3, #8]
 299 006a 002B     		cmp	r3, #0
 300 006c FBD0     		beq	.L22
 104:colorSensor.c ****     {
 105:colorSensor.c ****     ;
 106:colorSensor.c ****     }
 107:colorSensor.c ****     return freq;
 108:colorSensor.c ****     
 109:colorSensor.c ****  
 110:colorSensor.c **** 
 111:colorSensor.c **** }
 301              		.loc 1 111 0
 302 006e 014B     		ldr	r3, .L24
 303 0070 1868     		ldr	r0, [r3]
 304 0072 10BD     		pop	{r4, pc}
 305              	.L25:
 306              		.align	2
 307              	.L24:
 308 0074 00000000 		.word	.LANCHOR0
 309              		.cfi_endproc
 310              	.LFE68:
 311              		.size	get_freq, .-get_freq
 312              		.section	.text.print,"ax",%progbits
 313              		.align	2
 314              		.global	print
 315              		.thumb
 316              		.thumb_func
 317              		.type	print, %function
 318              	print:
 319              	.LFB69:
 112:colorSensor.c **** 
 113:colorSensor.c **** char str[STRING_LENGTH+1] ; /* print buff */
 114:colorSensor.c **** 
 115:colorSensor.c **** void print(char *str)
 116:colorSensor.c **** {
 320              		.loc 1 116 0
 321              		.cfi_startproc
 322              		@ args = 0, pretend = 0, frame = 0
 323              		@ frame_needed = 0, uses_anonymous_args = 0
 324              	.LVL33:
 325 0000 08B5     		push	{r3, lr}
 326              		.cfi_def_cfa_offset 8
 327              		.cfi_offset 3, -8
 328              		.cfi_offset 14, -4
 117:colorSensor.c ****     UART_1_PutString(str) ;
 329              		.loc 1 117 0
 330 0002 FFF7FEFF 		bl	UART_1_PutString
 331              	.LVL34:
 332 0006 08BD     		pop	{r3, pc}
 333              		.cfi_endproc
 334              	.LFE69:
 335              		.size	print, .-print
 336              		.global	__aeabi_ui2d
 337              		.global	__aeabi_dmul
 338              		.global	__aeabi_dcmpgt
 339              		.global	__aeabi_dadd
ARM GAS  C:\Users\shynt\AppData\Local\Temp\ccxjykpB.s 			page 9


 340              		.section	.text.getColor,"ax",%progbits
 341              		.align	2
 342              		.global	getColor
 343              		.thumb
 344              		.thumb_func
 345              		.type	getColor, %function
 346              	getColor:
 347              	.LFB70:
 118:colorSensor.c **** }
 119:colorSensor.c **** 
 120:colorSensor.c **** int getColor()
 121:colorSensor.c **** {
 348              		.loc 1 121 0
 349              		.cfi_startproc
 350              		@ args = 0, pretend = 0, frame = 16
 351              		@ frame_needed = 0, uses_anonymous_args = 0
 352 0000 2DE9F04F 		push	{r4, r5, r6, r7, r8, r9, r10, fp, lr}
 353              		.cfi_def_cfa_offset 36
 354              		.cfi_offset 4, -36
 355              		.cfi_offset 5, -32
 356              		.cfi_offset 6, -28
 357              		.cfi_offset 7, -24
 358              		.cfi_offset 8, -20
 359              		.cfi_offset 9, -16
 360              		.cfi_offset 10, -12
 361              		.cfi_offset 11, -8
 362              		.cfi_offset 14, -4
 363 0004 85B0     		sub	sp, sp, #20
 364              		.cfi_def_cfa_offset 56
 365              	.LVL35:
 122:colorSensor.c **** uint freqR_0, freqG_0, freqB_0, freqR, freqG, freqB = 0;
 123:colorSensor.c **** uint countR = 0;
 124:colorSensor.c **** uint countG = 0;
 125:colorSensor.c **** uint countB = 0;
 126:colorSensor.c **** uint countU = 0;
 127:colorSensor.c **** 
 128:colorSensor.c ****     
 129:colorSensor.c ****     init_start();
 366              		.loc 1 129 0
 367 0006 FFF7FEFF 		bl	init_start
 368              	.LVL36:
 130:colorSensor.c ****     read_color();
 369              		.loc 1 130 0
 370 000a FFF7FEFF 		bl	read_color
 371              	.LVL37:
 131:colorSensor.c ****     
 132:colorSensor.c ****     freqR_0 = get_freq('r');
 372              		.loc 1 132 0
 373 000e 7220     		movs	r0, #114
 374 0010 FFF7FEFF 		bl	get_freq
 375              	.LVL38:
 376 0014 0090     		str	r0, [sp]
 377              	.LVL39:
 133:colorSensor.c ****     freqG_0 = get_freq('g');
 378              		.loc 1 133 0
 379 0016 6720     		movs	r0, #103
 380              	.LVL40:
ARM GAS  C:\Users\shynt\AppData\Local\Temp\ccxjykpB.s 			page 10


 381 0018 FFF7FEFF 		bl	get_freq
 382              	.LVL41:
 383 001c 0190     		str	r0, [sp, #4]
 384              	.LVL42:
 134:colorSensor.c ****     freqB_0 = get_freq('b');
 385              		.loc 1 134 0
 386 001e 6220     		movs	r0, #98
 387              	.LVL43:
 388 0020 FFF7FEFF 		bl	get_freq
 389              	.LVL44:
 390 0024 0290     		str	r0, [sp, #8]
 391              	.LVL45:
 126:colorSensor.c **** 
 392              		.loc 1 126 0
 393 0026 4FF0000A 		mov	r10, #0
 125:colorSensor.c **** uint countU = 0;
 394              		.loc 1 125 0
 395 002a CDF80CA0 		str	r10, [sp, #12]
 124:colorSensor.c **** uint countB = 0;
 396              		.loc 1 124 0
 397 002e D046     		mov	r8, r10
 123:colorSensor.c **** uint countG = 0;
 398              		.loc 1 123 0
 399 0030 D146     		mov	r9, r10
 400              	.LVL46:
 401              	.L29:
 135:colorSensor.c ****     
 136:colorSensor.c ****         for(;;)
 137:colorSensor.c ****         {
 138:colorSensor.c ****             
 139:colorSensor.c ****             freqR = get_freq('r');
 402              		.loc 1 139 0
 403 0032 7220     		movs	r0, #114
 404 0034 FFF7FEFF 		bl	get_freq
 405              	.LVL47:
 406 0038 8346     		mov	fp, r0
 407              	.LVL48:
 140:colorSensor.c ****             freqG = get_freq('g');
 408              		.loc 1 140 0
 409 003a 6720     		movs	r0, #103
 410              	.LVL49:
 411 003c FFF7FEFF 		bl	get_freq
 412              	.LVL50:
 413 0040 0446     		mov	r4, r0
 414              	.LVL51:
 141:colorSensor.c ****             freqB = get_freq('b');
 415              		.loc 1 141 0
 416 0042 6220     		movs	r0, #98
 417              	.LVL52:
 418 0044 FFF7FEFF 		bl	get_freq
 419              	.LVL53:
 420 0048 0546     		mov	r5, r0
 421              	.LVL54:
 142:colorSensor.c ****            
 143:colorSensor.c ****             
 144:colorSensor.c ****             //Nedenstående to sætninger bruges til at se frekvensen på farverne
 145:colorSensor.c ****             //sprintf(str,"Red freq: %u Hz, Green freq: %u, Blue freq: %u, Clear freq: %u, R0: %u, 
ARM GAS  C:\Users\shynt\AppData\Local\Temp\ccxjykpB.s 			page 11


 146:colorSensor.c ****             //print(str);
 147:colorSensor.c ****             
 148:colorSensor.c ****             //Nedenstående er koden der skal bruges
 149:colorSensor.c ****             
 150:colorSensor.c ****         
 151:colorSensor.c ****             
 152:colorSensor.c ****              if(freqR>freqR_0*1.1)
 422              		.loc 1 152 0
 423 004a 5846     		mov	r0, fp
 424              	.LVL55:
 425 004c FFF7FEFF 		bl	__aeabi_ui2d
 426              	.LVL56:
 427 0050 0646     		mov	r6, r0
 428 0052 0F46     		mov	r7, r1
 429 0054 0098     		ldr	r0, [sp]
 430 0056 FFF7FEFF 		bl	__aeabi_ui2d
 431              	.LVL57:
 432 005a 61A3     		adr	r3, .L49
 433 005c D3E90023 		ldrd	r2, [r3]
 434 0060 FFF7FEFF 		bl	__aeabi_dmul
 435              	.LVL58:
 436 0064 0246     		mov	r2, r0
 437 0066 0B46     		mov	r3, r1
 438 0068 3046     		mov	r0, r6
 439 006a 3946     		mov	r1, r7
 440 006c FFF7FEFF 		bl	__aeabi_dcmpgt
 441              	.LVL59:
 442 0070 50B3     		cbz	r0, .L44
 153:colorSensor.c ****                 {
 154:colorSensor.c ****                     if(freqR>freqG&&freqR>freqB)
 443              		.loc 1 154 0
 444 0072 A345     		cmp	fp, r4
 445 0074 17D9     		bls	.L32
 446              		.loc 1 154 0 is_stmt 0 discriminator 1
 447 0076 AB45     		cmp	fp, r5
 448 0078 15D9     		bls	.L32
 155:colorSensor.c ****                     {
 156:colorSensor.c ****                         countR ++;
 449              		.loc 1 156 0 is_stmt 1
 450 007a 09F10109 		add	r9, r9, #1
 451              	.LVL60:
 157:colorSensor.c **** 
 158:colorSensor.c ****                         if(countR==2)
 452              		.loc 1 158 0
 453 007e B9F1020F 		cmp	r9, #2
 454 0082 D6D1     		bne	.L29
 159:colorSensor.c ****                         {
 160:colorSensor.c ****                             //Indsæt 'driveForward funktion'
 161:colorSensor.c ****                         sprintf(str,"Red color detected\n\r");
 455              		.loc 1 161 0
 456 0084 5A4D     		ldr	r5, .L49+16
 457              	.LVL61:
 458 0086 5B4C     		ldr	r4, .L49+20
 459              	.LVL62:
 460 0088 0FCC     		ldmia	r4!, {r0, r1, r2, r3}
 461 008a 2860     		str	r0, [r5]	@ unaligned
 462 008c 6960     		str	r1, [r5, #4]	@ unaligned
ARM GAS  C:\Users\shynt\AppData\Local\Temp\ccxjykpB.s 			page 12


 463 008e AA60     		str	r2, [r5, #8]	@ unaligned
 464 0090 EB60     		str	r3, [r5, #12]	@ unaligned
 465 0092 2068     		ldr	r0, [r4]	@ unaligned
 466 0094 2861     		str	r0, [r5, #16]	@ unaligned
 467 0096 2379     		ldrb	r3, [r4, #4]	@ zero_extendqisi2
 468 0098 2B75     		strb	r3, [r5, #20]
 162:colorSensor.c ****                         print(str);
 469              		.loc 1 162 0
 470 009a 2846     		mov	r0, r5
 471 009c FFF7FEFF 		bl	print
 472              	.LVL63:
 163:colorSensor.c ****                         countR = 0;
 473              		.loc 1 163 0
 474 00a0 4FF00009 		mov	r9, #0
 475 00a4 C5E7     		b	.L29
 476              	.LVL64:
 477              	.L32:
 164:colorSensor.c ****                         }
 165:colorSensor.c ****                         
 166:colorSensor.c ****                     }
 167:colorSensor.c ****                    
 168:colorSensor.c ****                     else
 169:colorSensor.c ****                     {
 170:colorSensor.c ****                         //Indsæt 'driveLeft funktion'
 171:colorSensor.c ****                         sprintf(str,"Unknown color in red\n\r");
 478              		.loc 1 171 0
 479 00a6 524D     		ldr	r5, .L49+16
 480              	.LVL65:
 481 00a8 534C     		ldr	r4, .L49+24
 482              	.LVL66:
 483 00aa 0FCC     		ldmia	r4!, {r0, r1, r2, r3}
 484 00ac 2860     		str	r0, [r5]	@ unaligned
 485 00ae 6960     		str	r1, [r5, #4]	@ unaligned
 486 00b0 AA60     		str	r2, [r5, #8]	@ unaligned
 487 00b2 EB60     		str	r3, [r5, #12]	@ unaligned
 488 00b4 2068     		ldr	r0, [r4]	@ unaligned
 489 00b6 2861     		str	r0, [r5, #16]	@ unaligned
 490 00b8 A288     		ldrh	r2, [r4, #4]	@ unaligned
 491 00ba A379     		ldrb	r3, [r4, #6]	@ zero_extendqisi2
 492 00bc AA82     		strh	r2, [r5, #20]	@ unaligned
 493 00be AB75     		strb	r3, [r5, #22]
 172:colorSensor.c ****                         print(str);
 494              		.loc 1 172 0
 495 00c0 2846     		mov	r0, r5
 496 00c2 FFF7FEFF 		bl	print
 497              	.LVL67:
 498 00c6 B4E7     		b	.L29
 499              	.LVL68:
 500              	.L44:
 173:colorSensor.c ****                     }    
 174:colorSensor.c ****                 }
 175:colorSensor.c **** 
 176:colorSensor.c ****             else if (freqG>freqG_0+1.1)
 501              		.loc 1 176 0
 502 00c8 2046     		mov	r0, r4
 503 00ca FFF7FEFF 		bl	__aeabi_ui2d
 504              	.LVL69:
ARM GAS  C:\Users\shynt\AppData\Local\Temp\ccxjykpB.s 			page 13


 505 00ce 0646     		mov	r6, r0
 506 00d0 0F46     		mov	r7, r1
 507 00d2 0198     		ldr	r0, [sp, #4]
 508 00d4 FFF7FEFF 		bl	__aeabi_ui2d
 509              	.LVL70:
 510 00d8 41A3     		adr	r3, .L49
 511 00da D3E90023 		ldrd	r2, [r3]
 512 00de FFF7FEFF 		bl	__aeabi_dadd
 513              	.LVL71:
 514 00e2 0246     		mov	r2, r0
 515 00e4 0B46     		mov	r3, r1
 516 00e6 3046     		mov	r0, r6
 517 00e8 3946     		mov	r1, r7
 518 00ea FFF7FEFF 		bl	__aeabi_dcmpgt
 519              	.LVL72:
 520 00ee A8B3     		cbz	r0, .L45
 177:colorSensor.c ****             {    
 178:colorSensor.c ****                 if (freqG>freqB*0.9)
 521              		.loc 1 178 0
 522 00f0 2846     		mov	r0, r5
 523 00f2 FFF7FEFF 		bl	__aeabi_ui2d
 524              	.LVL73:
 525 00f6 3CA3     		adr	r3, .L49+8
 526 00f8 D3E90023 		ldrd	r2, [r3]
 527 00fc FFF7FEFF 		bl	__aeabi_dmul
 528              	.LVL74:
 529 0100 0246     		mov	r2, r0
 530 0102 0B46     		mov	r3, r1
 531 0104 3046     		mov	r0, r6
 532 0106 3946     		mov	r1, r7
 533 0108 FFF7FEFF 		bl	__aeabi_dcmpgt
 534              	.LVL75:
 535 010c B8B1     		cbz	r0, .L46
 179:colorSensor.c ****                 {
 180:colorSensor.c ****                         countG ++;
 536              		.loc 1 180 0
 537 010e 08F10108 		add	r8, r8, #1
 538              	.LVL76:
 181:colorSensor.c ****                         if(countG==2)
 539              		.loc 1 181 0
 540 0112 B8F1020F 		cmp	r8, #2
 541 0116 8CD1     		bne	.L29
 182:colorSensor.c ****                         {
 183:colorSensor.c ****                             //Indsæt
 184:colorSensor.c ****                         sprintf(str,"Green color detected\n\r");
 542              		.loc 1 184 0
 543 0118 354D     		ldr	r5, .L49+16
 544              	.LVL77:
 545 011a 384C     		ldr	r4, .L49+28
 546              	.LVL78:
 547 011c 0FCC     		ldmia	r4!, {r0, r1, r2, r3}
 548 011e 2860     		str	r0, [r5]	@ unaligned
 549 0120 6960     		str	r1, [r5, #4]	@ unaligned
 550 0122 AA60     		str	r2, [r5, #8]	@ unaligned
 551 0124 EB60     		str	r3, [r5, #12]	@ unaligned
 552 0126 2068     		ldr	r0, [r4]	@ unaligned
 553 0128 2861     		str	r0, [r5, #16]	@ unaligned
ARM GAS  C:\Users\shynt\AppData\Local\Temp\ccxjykpB.s 			page 14


 554 012a A288     		ldrh	r2, [r4, #4]	@ unaligned
 555 012c A379     		ldrb	r3, [r4, #6]	@ zero_extendqisi2
 556 012e AA82     		strh	r2, [r5, #20]	@ unaligned
 557 0130 AB75     		strb	r3, [r5, #22]
 185:colorSensor.c ****                         print(str);
 558              		.loc 1 185 0
 559 0132 2846     		mov	r0, r5
 560 0134 FFF7FEFF 		bl	print
 561              	.LVL79:
 186:colorSensor.c ****                         countG = 0;
 562              		.loc 1 186 0
 563 0138 4FF00008 		mov	r8, #0
 564 013c 79E7     		b	.L29
 565              	.LVL80:
 566              	.L46:
 187:colorSensor.c ****                         }
 188:colorSensor.c ****                 }
 189:colorSensor.c ****                 else
 190:colorSensor.c ****                 {
 191:colorSensor.c ****                       sprintf(str,"Blue color detected\n\r");
 567              		.loc 1 191 0
 568 013e 2C4D     		ldr	r5, .L49+16
 569              	.LVL81:
 570 0140 2F4C     		ldr	r4, .L49+32
 571              	.LVL82:
 572 0142 0FCC     		ldmia	r4!, {r0, r1, r2, r3}
 573 0144 2860     		str	r0, [r5]	@ unaligned
 574 0146 6960     		str	r1, [r5, #4]	@ unaligned
 575 0148 AA60     		str	r2, [r5, #8]	@ unaligned
 576 014a EB60     		str	r3, [r5, #12]	@ unaligned
 577 014c 2068     		ldr	r0, [r4]	@ unaligned
 578 014e 2861     		str	r0, [r5, #16]	@ unaligned
 579 0150 A388     		ldrh	r3, [r4, #4]	@ unaligned
 580 0152 AB82     		strh	r3, [r5, #20]	@ unaligned
 192:colorSensor.c ****                       print(str);               
 581              		.loc 1 192 0
 582 0154 2846     		mov	r0, r5
 583 0156 FFF7FEFF 		bl	print
 584              	.LVL83:
 585 015a 6AE7     		b	.L29
 586              	.LVL84:
 587              	.L45:
 193:colorSensor.c ****                 }
 194:colorSensor.c ****             }    
 195:colorSensor.c ****             else if (freqB>freqB_0*1.1)
 588              		.loc 1 195 0
 589 015c 2846     		mov	r0, r5
 590 015e FFF7FEFF 		bl	__aeabi_ui2d
 591              	.LVL85:
 592 0162 0646     		mov	r6, r0
 593 0164 0F46     		mov	r7, r1
 594 0166 0298     		ldr	r0, [sp, #8]
 595 0168 FFF7FEFF 		bl	__aeabi_ui2d
 596              	.LVL86:
 597 016c 1CA3     		adr	r3, .L49
 598 016e D3E90023 		ldrd	r2, [r3]
 599 0172 FFF7FEFF 		bl	__aeabi_dmul
ARM GAS  C:\Users\shynt\AppData\Local\Temp\ccxjykpB.s 			page 15


 600              	.LVL87:
 601 0176 0246     		mov	r2, r0
 602 0178 0B46     		mov	r3, r1
 603 017a 3046     		mov	r0, r6
 604 017c 3946     		mov	r1, r7
 605 017e FFF7FEFF 		bl	__aeabi_dcmpgt
 606              	.LVL88:
 607 0182 C8B1     		cbz	r0, .L47
 196:colorSensor.c ****             {
 197:colorSensor.c ****             
 198:colorSensor.c ****             
 199:colorSensor.c ****                 if (freqB>freqG)
 608              		.loc 1 199 0
 609 0184 AC42     		cmp	r4, r5
 610 0186 BFF454AF 		bcs	.L29
 200:colorSensor.c ****                 {
 201:colorSensor.c ****                         countB ++;
 611              		.loc 1 201 0
 612 018a 039B     		ldr	r3, [sp, #12]
 613 018c 0133     		adds	r3, r3, #1
 614 018e 0393     		str	r3, [sp, #12]
 615              	.LVL89:
 202:colorSensor.c ****                         if(countB==2)
 616              		.loc 1 202 0
 617 0190 022B     		cmp	r3, #2
 618 0192 7FF44EAF 		bne	.L29
 203:colorSensor.c ****                         {
 204:colorSensor.c ****                         sprintf(str,"Blue color detected\n\r");
 619              		.loc 1 204 0
 620 0196 164D     		ldr	r5, .L49+16
 621              	.LVL90:
 622 0198 194C     		ldr	r4, .L49+32
 623              	.LVL91:
 624 019a 0FCC     		ldmia	r4!, {r0, r1, r2, r3}
 625              	.LVL92:
 626 019c 2860     		str	r0, [r5]	@ unaligned
 627 019e 6960     		str	r1, [r5, #4]	@ unaligned
 628 01a0 AA60     		str	r2, [r5, #8]	@ unaligned
 629 01a2 EB60     		str	r3, [r5, #12]	@ unaligned
 630 01a4 2068     		ldr	r0, [r4]	@ unaligned
 631 01a6 2861     		str	r0, [r5, #16]	@ unaligned
 632 01a8 A388     		ldrh	r3, [r4, #4]	@ unaligned
 633 01aa AB82     		strh	r3, [r5, #20]	@ unaligned
 205:colorSensor.c ****                         print(str);
 634              		.loc 1 205 0
 635 01ac 2846     		mov	r0, r5
 636 01ae FFF7FEFF 		bl	print
 637              	.LVL93:
 206:colorSensor.c ****                         countB = 0;
 638              		.loc 1 206 0
 639 01b2 0023     		movs	r3, #0
 640 01b4 0393     		str	r3, [sp, #12]
 641 01b6 3CE7     		b	.L29
 642              	.LVL94:
 643              	.L47:
 207:colorSensor.c ****                         }
 208:colorSensor.c ****                 }
ARM GAS  C:\Users\shynt\AppData\Local\Temp\ccxjykpB.s 			page 16


 209:colorSensor.c ****              }
 210:colorSensor.c ****            
 211:colorSensor.c ****             else
 212:colorSensor.c ****                 {
 213:colorSensor.c ****                     countU ++;
 644              		.loc 1 213 0
 645 01b8 0AF1010A 		add	r10, r10, #1
 646              	.LVL95:
 214:colorSensor.c ****                     if(countU==2)
 647              		.loc 1 214 0
 648 01bc BAF1020F 		cmp	r10, #2
 649 01c0 7FF437AF 		bne	.L29
 215:colorSensor.c ****                      {   //Indsæt 'driveLeft funktion'
 216:colorSensor.c ****                     sprintf(str,"Unknown color\n\r");
 650              		.loc 1 216 0
 651 01c4 0A4D     		ldr	r5, .L49+16
 652              	.LVL96:
 653 01c6 0F4C     		ldr	r4, .L49+36
 654              	.LVL97:
 655 01c8 0FCC     		ldmia	r4!, {r0, r1, r2, r3}
 656 01ca 2860     		str	r0, [r5]	@ unaligned
 657 01cc 6960     		str	r1, [r5, #4]	@ unaligned
 658 01ce AA60     		str	r2, [r5, #8]	@ unaligned
 659 01d0 EB60     		str	r3, [r5, #12]	@ unaligned
 217:colorSensor.c ****                     print(str);
 660              		.loc 1 217 0
 661 01d2 2846     		mov	r0, r5
 662 01d4 FFF7FEFF 		bl	print
 663              	.LVL98:
 218:colorSensor.c ****                     countU = 0;}
 664              		.loc 1 218 0
 665 01d8 4FF0000A 		mov	r10, #0
 666 01dc 29E7     		b	.L29
 667              	.L50:
 668 01de 00BF     		.align	3
 669              	.L49:
 670 01e0 9A999999 		.word	-1717986918
 671 01e4 9999F13F 		.word	1072798105
 672 01e8 CDCCCCCC 		.word	-858993459
 673 01ec CCCCEC3F 		.word	1072483532
 674 01f0 00000000 		.word	str
 675 01f4 00000000 		.word	.LC0
 676 01f8 18000000 		.word	.LC1
 677 01fc 30000000 		.word	.LC2
 678 0200 48000000 		.word	.LC3
 679 0204 60000000 		.word	.LC4
 680              		.cfi_endproc
 681              	.LFE70:
 682              		.size	getColor, .-getColor
 683              		.comm	str,129,4
 684              		.global	Counter_cycle
 685              		.global	dataReady
 686              		.global	freq
 687              		.section	.rodata.str1.4,"aMS",%progbits,1
 688              		.align	2
 689              	.LC0:
 690 0000 52656420 		.ascii	"Red color detected\012\015\000"
ARM GAS  C:\Users\shynt\AppData\Local\Temp\ccxjykpB.s 			page 17


 690      636F6C6F 
 690      72206465 
 690      74656374 
 690      65640A0D 
 691 0015 000000   		.space	3
 692              	.LC1:
 693 0018 556E6B6E 		.ascii	"Unknown color in red\012\015\000"
 693      6F776E20 
 693      636F6C6F 
 693      7220696E 
 693      20726564 
 694 002f 00       		.space	1
 695              	.LC2:
 696 0030 47726565 		.ascii	"Green color detected\012\015\000"
 696      6E20636F 
 696      6C6F7220 
 696      64657465 
 696      63746564 
 697 0047 00       		.space	1
 698              	.LC3:
 699 0048 426C7565 		.ascii	"Blue color detected\012\015\000"
 699      20636F6C 
 699      6F722064 
 699      65746563 
 699      7465640A 
 700 005e 0000     		.space	2
 701              	.LC4:
 702 0060 556E6B6E 		.ascii	"Unknown color\012\015\000"
 702      6F776E20 
 702      636F6C6F 
 702      720A0D00 
 703              		.bss
 704              		.align	2
 705              		.set	.LANCHOR0,. + 0
 706              		.type	freq, %object
 707              		.size	freq, 4
 708              	freq:
 709 0000 00000000 		.space	4
 710              		.type	Counter_cycle, %object
 711              		.size	Counter_cycle, 4
 712              	Counter_cycle:
 713 0004 00000000 		.space	4
 714              		.type	dataReady, %object
 715              		.size	dataReady, 4
 716              	dataReady:
 717 0008 00000000 		.space	4
 718              		.text
 719              	.Letext0:
 720              		.file 2 "c:\\program files (x86)\\cypress\\psoc creator\\4.3\\psoc creator\\import\\gnu\\arm\\5.4.
 721              		.file 3 "c:\\program files (x86)\\cypress\\psoc creator\\4.3\\psoc creator\\import\\gnu\\arm\\5.4.
 722              		.file 4 "c:\\program files (x86)\\cypress\\psoc creator\\4.3\\psoc creator\\import\\gnu\\arm\\5.4.
 723              		.file 5 "Generated_Source\\PSoC5/core_cm3.h"
 724              		.file 6 "Generated_Source\\PSoC5/Counter.h"
 725              		.file 7 "Generated_Source\\PSoC5/Timer.h"
 726              		.file 8 "Generated_Source\\PSoC5/OE.h"
 727              		.file 9 "Generated_Source\\PSoC5/Timer_INT.h"
 728              		.file 10 "Generated_Source\\PSoC5/Counter_INT.h"
ARM GAS  C:\Users\shynt\AppData\Local\Temp\ccxjykpB.s 			page 18


 729              		.file 11 "Generated_Source\\PSoC5/UART_1.h"
 730              		.file 12 "Generated_Source\\PSoC5/Control_Reg.h"
 731              		.file 13 "Generated_Source\\PSoC5/CyLib.h"
 732              		.file 14 "Generated_Source\\PSoC5/S0.h"
 733              		.file 15 "Generated_Source\\PSoC5/S1.h"
 734              		.file 16 "Generated_Source\\PSoC5/S2.h"
 735              		.file 17 "Generated_Source\\PSoC5/S3.h"