ARM GAS  C:\Users\PETERW~1\AppData\Local\Temp\ccybLulg.s 			page 1


   1              		.syntax unified
   2              		.cpu cortex-m3
   3              		.fpu softvfp
   4              		.eabi_attribute 20, 1
   5              		.eabi_attribute 21, 1
   6              		.eabi_attribute 23, 3
   7              		.eabi_attribute 24, 1
   8              		.eabi_attribute 25, 1
   9              		.eabi_attribute 26, 1
  10              		.eabi_attribute 30, 1
  11              		.eabi_attribute 34, 1
  12              		.eabi_attribute 18, 4
  13              		.thumb
  14              		.syntax unified
  15              		.file	"motorStyring.c"
  16              		.text
  17              	.Ltext0:
  18              		.cfi_sections	.debug_frame
  19              		.section	.text.initMotor,"ax",%progbits
  20              		.align	2
  21              		.global	initMotor
  22              		.thumb
  23              		.thumb_func
  24              		.type	initMotor, %function
  25              	initMotor:
  26              	.LFB63:
  27              		.file 1 "motorStyring.c"
   1:motorStyring.c **** /* ========================================
   2:motorStyring.c ****  *
   3:motorStyring.c ****  * Copyright BEERTRESS, 2020
   4:motorStyring.c ****  * All Rights Reserved
   5:motorStyring.c ****  * UNPUBLISHED, LICENSED SOFTWARE.
   6:motorStyring.c ****  *
   7:motorStyring.c ****  * CONFIDENTIAL AND PROPRIETARY INFORMATION
   8:motorStyring.c ****  * WHICH IS THE PROPERTY OF BEERTRESS.
   9:motorStyring.c ****  *
  10:motorStyring.c ****  * ========================================
  11:motorStyring.c **** */
  12:motorStyring.c **** 
  13:motorStyring.c **** #include "motorStyring.h"
  14:motorStyring.c **** #include "project.h"
  15:motorStyring.c **** 
  16:motorStyring.c **** void initMotor()
  17:motorStyring.c **** {
  28              		.loc 1 17 0
  29              		.cfi_startproc
  30              		@ args = 0, pretend = 0, frame = 0
  31              		@ frame_needed = 0, uses_anonymous_args = 0
  32 0000 08B5     		push	{r3, lr}
  33              		.cfi_def_cfa_offset 8
  34              		.cfi_offset 3, -8
  35              		.cfi_offset 14, -4
  18:motorStyring.c ****     PWM1_Start();
  36              		.loc 1 18 0
  37 0002 FFF7FEFF 		bl	PWM1_Start
  38              	.LVL0:
  19:motorStyring.c ****     PWM2_Start();
ARM GAS  C:\Users\PETERW~1\AppData\Local\Temp\ccybLulg.s 			page 2


  39              		.loc 1 19 0
  40 0006 FFF7FEFF 		bl	PWM2_Start
  41              	.LVL1:
  42 000a 08BD     		pop	{r3, pc}
  43              		.cfi_endproc
  44              	.LFE63:
  45              		.size	initMotor, .-initMotor
  46              		.section	.text.driveForward,"ax",%progbits
  47              		.align	2
  48              		.global	driveForward
  49              		.thumb
  50              		.thumb_func
  51              		.type	driveForward, %function
  52              	driveForward:
  53              	.LFB64:
  20:motorStyring.c **** }
  21:motorStyring.c **** void driveForward()
  22:motorStyring.c **** {
  54              		.loc 1 22 0
  55              		.cfi_startproc
  56              		@ args = 0, pretend = 0, frame = 0
  57              		@ frame_needed = 0, uses_anonymous_args = 0
  58 0000 08B5     		push	{r3, lr}
  59              		.cfi_def_cfa_offset 8
  60              		.cfi_offset 3, -8
  61              		.cfi_offset 14, -4
  23:motorStyring.c ****     UART_PutString("BEERTRESS: Driving Forward!\r\n");
  62              		.loc 1 23 0
  63 0002 0D48     		ldr	r0, .L5
  64 0004 FFF7FEFF 		bl	UART_PutString
  65              	.LVL2:
  24:motorStyring.c ****     // Sætter direction på DC motor ved hjælp af H-Bro
  25:motorStyring.c ****     in1_Write(1);
  66              		.loc 1 25 0
  67 0008 0120     		movs	r0, #1
  68 000a FFF7FEFF 		bl	in1_Write
  69              	.LVL3:
  26:motorStyring.c ****     in2_Write(0);
  70              		.loc 1 26 0
  71 000e 0020     		movs	r0, #0
  72 0010 FFF7FEFF 		bl	in2_Write
  73              	.LVL4:
  27:motorStyring.c ****     in3_Write(0);
  74              		.loc 1 27 0
  75 0014 0020     		movs	r0, #0
  76 0016 FFF7FEFF 		bl	in3_Write
  77              	.LVL5:
  28:motorStyring.c ****     in4_Write(1);
  78              		.loc 1 28 0
  79 001a 0120     		movs	r0, #1
  80 001c FFF7FEFF 		bl	in4_Write
  81              	.LVL6:
  29:motorStyring.c ****     // Starter PWM
  30:motorStyring.c ****     PWM1_Start();
  82              		.loc 1 30 0
  83 0020 FFF7FEFF 		bl	PWM1_Start
  84              	.LVL7:
ARM GAS  C:\Users\PETERW~1\AppData\Local\Temp\ccybLulg.s 			page 3


  31:motorStyring.c ****     PWM2_Start();
  85              		.loc 1 31 0
  86 0024 FFF7FEFF 		bl	PWM2_Start
  87              	.LVL8:
  32:motorStyring.c ****     // Sætter PWM til 100%
  33:motorStyring.c ****     PWM2_WriteCompare(100);
  88              		.loc 1 33 0
  89 0028 6420     		movs	r0, #100
  90 002a FFF7FEFF 		bl	PWM2_WriteCompare
  91              	.LVL9:
  34:motorStyring.c ****     PWM1_WriteCompare(100);
  92              		.loc 1 34 0
  93 002e 6420     		movs	r0, #100
  94 0030 FFF7FEFF 		bl	PWM1_WriteCompare
  95              	.LVL10:
  96 0034 08BD     		pop	{r3, pc}
  97              	.L6:
  98 0036 00BF     		.align	2
  99              	.L5:
 100 0038 00000000 		.word	.LC0
 101              		.cfi_endproc
 102              	.LFE64:
 103              		.size	driveForward, .-driveForward
 104              		.section	.text.driveBackward,"ax",%progbits
 105              		.align	2
 106              		.global	driveBackward
 107              		.thumb
 108              		.thumb_func
 109              		.type	driveBackward, %function
 110              	driveBackward:
 111              	.LFB65:
  35:motorStyring.c **** }
  36:motorStyring.c **** 
  37:motorStyring.c **** void driveBackward()
  38:motorStyring.c **** {
 112              		.loc 1 38 0
 113              		.cfi_startproc
 114              		@ args = 0, pretend = 0, frame = 0
 115              		@ frame_needed = 0, uses_anonymous_args = 0
 116 0000 08B5     		push	{r3, lr}
 117              		.cfi_def_cfa_offset 8
 118              		.cfi_offset 3, -8
 119              		.cfi_offset 14, -4
  39:motorStyring.c ****     UART_PutString("BEERTRESS: Driving Backwards!\r\n");
 120              		.loc 1 39 0
 121 0002 0D48     		ldr	r0, .L9
 122 0004 FFF7FEFF 		bl	UART_PutString
 123              	.LVL11:
  40:motorStyring.c ****     
  41:motorStyring.c ****     // Sætter direction på DC motor ved hjælp af H-Bro
  42:motorStyring.c ****     in1_Write(0);
 124              		.loc 1 42 0
 125 0008 0020     		movs	r0, #0
 126 000a FFF7FEFF 		bl	in1_Write
 127              	.LVL12:
  43:motorStyring.c ****     in2_Write(1);
 128              		.loc 1 43 0
ARM GAS  C:\Users\PETERW~1\AppData\Local\Temp\ccybLulg.s 			page 4


 129 000e 0120     		movs	r0, #1
 130 0010 FFF7FEFF 		bl	in2_Write
 131              	.LVL13:
  44:motorStyring.c ****     in3_Write(3);
 132              		.loc 1 44 0
 133 0014 0320     		movs	r0, #3
 134 0016 FFF7FEFF 		bl	in3_Write
 135              	.LVL14:
  45:motorStyring.c ****     in4_Write(4);
 136              		.loc 1 45 0
 137 001a 0420     		movs	r0, #4
 138 001c FFF7FEFF 		bl	in4_Write
 139              	.LVL15:
  46:motorStyring.c ****     // Starter PWM
  47:motorStyring.c ****     PWM1_Start();
 140              		.loc 1 47 0
 141 0020 FFF7FEFF 		bl	PWM1_Start
 142              	.LVL16:
  48:motorStyring.c ****     PWM2_Start();
 143              		.loc 1 48 0
 144 0024 FFF7FEFF 		bl	PWM2_Start
 145              	.LVL17:
  49:motorStyring.c ****     // Sætter PWM til 100%
  50:motorStyring.c ****     PWM2_WriteCompare(100);
 146              		.loc 1 50 0
 147 0028 6420     		movs	r0, #100
 148 002a FFF7FEFF 		bl	PWM2_WriteCompare
 149              	.LVL18:
  51:motorStyring.c ****     PWM1_WriteCompare(100);
 150              		.loc 1 51 0
 151 002e 6420     		movs	r0, #100
 152 0030 FFF7FEFF 		bl	PWM1_WriteCompare
 153              	.LVL19:
 154 0034 08BD     		pop	{r3, pc}
 155              	.L10:
 156 0036 00BF     		.align	2
 157              	.L9:
 158 0038 20000000 		.word	.LC1
 159              		.cfi_endproc
 160              	.LFE65:
 161              		.size	driveBackward, .-driveBackward
 162              		.section	.text.driveLeft,"ax",%progbits
 163              		.align	2
 164              		.global	driveLeft
 165              		.thumb
 166              		.thumb_func
 167              		.type	driveLeft, %function
 168              	driveLeft:
 169              	.LFB66:
  52:motorStyring.c **** }
  53:motorStyring.c **** 
  54:motorStyring.c **** void driveLeft()
  55:motorStyring.c **** {
 170              		.loc 1 55 0
 171              		.cfi_startproc
 172              		@ args = 0, pretend = 0, frame = 0
 173              		@ frame_needed = 0, uses_anonymous_args = 0
ARM GAS  C:\Users\PETERW~1\AppData\Local\Temp\ccybLulg.s 			page 5


 174 0000 08B5     		push	{r3, lr}
 175              		.cfi_def_cfa_offset 8
 176              		.cfi_offset 3, -8
 177              		.cfi_offset 14, -4
  56:motorStyring.c ****     UART_PutString("BEERTRESS: Turning Left!\r\n");
 178              		.loc 1 56 0
 179 0002 0548     		ldr	r0, .L13
 180 0004 FFF7FEFF 		bl	UART_PutString
 181              	.LVL20:
  57:motorStyring.c ****     
  58:motorStyring.c ****     // Starter PWM i venstre side, stopper PWM i højre.
  59:motorStyring.c ****     PWM1_Start();
 182              		.loc 1 59 0
 183 0008 FFF7FEFF 		bl	PWM1_Start
 184              	.LVL21:
  60:motorStyring.c ****     PWM2_Stop();
 185              		.loc 1 60 0
 186 000c FFF7FEFF 		bl	PWM2_Stop
 187              	.LVL22:
  61:motorStyring.c ****     // Sætter PWM til 100%
  62:motorStyring.c ****     PWM1_WriteCompare(100);
 188              		.loc 1 62 0
 189 0010 6420     		movs	r0, #100
 190 0012 FFF7FEFF 		bl	PWM1_WriteCompare
 191              	.LVL23:
 192 0016 08BD     		pop	{r3, pc}
 193              	.L14:
 194              		.align	2
 195              	.L13:
 196 0018 40000000 		.word	.LC2
 197              		.cfi_endproc
 198              	.LFE66:
 199              		.size	driveLeft, .-driveLeft
 200              		.section	.text.driveRight,"ax",%progbits
 201              		.align	2
 202              		.global	driveRight
 203              		.thumb
 204              		.thumb_func
 205              		.type	driveRight, %function
 206              	driveRight:
 207              	.LFB67:
  63:motorStyring.c **** }
  64:motorStyring.c **** 
  65:motorStyring.c **** 
  66:motorStyring.c **** void driveRight()
  67:motorStyring.c **** {
 208              		.loc 1 67 0
 209              		.cfi_startproc
 210              		@ args = 0, pretend = 0, frame = 0
 211              		@ frame_needed = 0, uses_anonymous_args = 0
 212 0000 08B5     		push	{r3, lr}
 213              		.cfi_def_cfa_offset 8
 214              		.cfi_offset 3, -8
 215              		.cfi_offset 14, -4
  68:motorStyring.c ****     UART_PutString("BEERTRESS: Turning Right!\r\n");
 216              		.loc 1 68 0
 217 0002 0548     		ldr	r0, .L17
ARM GAS  C:\Users\PETERW~1\AppData\Local\Temp\ccybLulg.s 			page 6


 218 0004 FFF7FEFF 		bl	UART_PutString
 219              	.LVL24:
  69:motorStyring.c ****     
  70:motorStyring.c ****     // Starter PWM i højre side, stopper PWM i venstre.
  71:motorStyring.c ****     PWM1_Stop();
 220              		.loc 1 71 0
 221 0008 FFF7FEFF 		bl	PWM1_Stop
 222              	.LVL25:
  72:motorStyring.c ****     PWM2_Start();
 223              		.loc 1 72 0
 224 000c FFF7FEFF 		bl	PWM2_Start
 225              	.LVL26:
  73:motorStyring.c ****     // Sætter PWM til 100%
  74:motorStyring.c ****     PWM2_WriteCompare(100);
 226              		.loc 1 74 0
 227 0010 6420     		movs	r0, #100
 228 0012 FFF7FEFF 		bl	PWM2_WriteCompare
 229              	.LVL27:
 230 0016 08BD     		pop	{r3, pc}
 231              	.L18:
 232              		.align	2
 233              	.L17:
 234 0018 5C000000 		.word	.LC3
 235              		.cfi_endproc
 236              	.LFE67:
 237              		.size	driveRight, .-driveRight
 238              		.section	.text.driveStop,"ax",%progbits
 239              		.align	2
 240              		.global	driveStop
 241              		.thumb
 242              		.thumb_func
 243              		.type	driveStop, %function
 244              	driveStop:
 245              	.LFB68:
  75:motorStyring.c **** }
  76:motorStyring.c **** 
  77:motorStyring.c **** void driveStop()
  78:motorStyring.c **** {
 246              		.loc 1 78 0
 247              		.cfi_startproc
 248              		@ args = 0, pretend = 0, frame = 0
 249              		@ frame_needed = 0, uses_anonymous_args = 0
 250 0000 08B5     		push	{r3, lr}
 251              		.cfi_def_cfa_offset 8
 252              		.cfi_offset 3, -8
 253              		.cfi_offset 14, -4
  79:motorStyring.c ****     UART_PutString("BEERTRESS: Stopped Driving!\r\n");
 254              		.loc 1 79 0
 255 0002 0448     		ldr	r0, .L21
 256 0004 FFF7FEFF 		bl	UART_PutString
 257              	.LVL28:
  80:motorStyring.c ****     
  81:motorStyring.c ****     // Stopper PWM
  82:motorStyring.c ****     PWM1_Stop();
 258              		.loc 1 82 0
 259 0008 FFF7FEFF 		bl	PWM1_Stop
 260              	.LVL29:
ARM GAS  C:\Users\PETERW~1\AppData\Local\Temp\ccybLulg.s 			page 7


  83:motorStyring.c ****     PWM2_Stop();
 261              		.loc 1 83 0
 262 000c FFF7FEFF 		bl	PWM2_Stop
 263              	.LVL30:
 264 0010 08BD     		pop	{r3, pc}
 265              	.L22:
 266 0012 00BF     		.align	2
 267              	.L21:
 268 0014 78000000 		.word	.LC4
 269              		.cfi_endproc
 270              	.LFE68:
 271              		.size	driveStop, .-driveStop
 272              		.section	.rodata.str1.4,"aMS",%progbits,1
 273              		.align	2
 274              	.LC0:
 275 0000 42454552 		.ascii	"BEERTRESS: Driving Forward!\015\012\000"
 275      54524553 
 275      533A2044 
 275      72697669 
 275      6E672046 
 276 001e 0000     		.space	2
 277              	.LC1:
 278 0020 42454552 		.ascii	"BEERTRESS: Driving Backwards!\015\012\000"
 278      54524553 
 278      533A2044 
 278      72697669 
 278      6E672042 
 279              	.LC2:
 280 0040 42454552 		.ascii	"BEERTRESS: Turning Left!\015\012\000"
 280      54524553 
 280      533A2054 
 280      75726E69 
 280      6E67204C 
 281 005b 00       		.space	1
 282              	.LC3:
 283 005c 42454552 		.ascii	"BEERTRESS: Turning Right!\015\012\000"
 283      54524553 
 283      533A2054 
 283      75726E69 
 283      6E672052 
 284              	.LC4:
 285 0078 42454552 		.ascii	"BEERTRESS: Stopped Driving!\015\012\000"
 285      54524553 
 285      533A2053 
 285      746F7070 
 285      65642044 
 286              		.text
 287              	.Letext0:
 288              		.file 2 "c:\\program files (x86)\\cypress\\psoc creator\\4.3\\psoc creator\\import\\gnu\\arm\\5.4.
 289              		.file 3 "c:\\program files (x86)\\cypress\\psoc creator\\4.3\\psoc creator\\import\\gnu\\arm\\5.4.
 290              		.file 4 "Generated_Source\\PSoC5/PWM1.h"
 291              		.file 5 "Generated_Source\\PSoC5/PWM2.h"
 292              		.file 6 "Generated_Source\\PSoC5/UART.h"
 293              		.file 7 "Generated_Source\\PSoC5/in1.h"
 294              		.file 8 "Generated_Source\\PSoC5/in2.h"
 295              		.file 9 "Generated_Source\\PSoC5/in3.h"
 296              		.file 10 "Generated_Source\\PSoC5/in4.h"
ARM GAS  C:\Users\PETERW~1\AppData\Local\Temp\ccybLulg.s 			page 8


 297              		.file 11 "Generated_Source\\PSoC5/core_cm3.h"