ARM GAS  C:\Users\Henry\AppData\Local\Temp\ccWk4oba.s 			page 1


   1              		.syntax unified
   2              		.cpu cortex-m3
   3              		.fpu softvfp
   4              		.eabi_attribute 20, 1
   5              		.eabi_attribute 21, 1
   6              		.eabi_attribute 23, 3
   7              		.eabi_attribute 24, 1
   8              		.eabi_attribute 25, 1
   9              		.eabi_attribute 26, 1
  10              		.eabi_attribute 30, 1
  11              		.eabi_attribute 34, 1
  12              		.eabi_attribute 18, 4
  13              		.thumb
  14              		.syntax unified
  15              		.file	"hcsr04.c"
  16              		.text
  17              	.Ltext0:
  18              		.cfi_sections	.debug_frame
  19              		.section	.text.initDistSens,"ax",%progbits
  20              		.align	2
  21              		.global	initDistSens
  22              		.thumb
  23              		.thumb_func
  24              		.type	initDistSens, %function
  25              	initDistSens:
  26              	.LFB64:
  27              		.file 1 "hcsr04.c"
   1:hcsr04.c      **** /* ========================================
   2:hcsr04.c      ****  *
   3:hcsr04.c      ****  * Copyright YOUR COMPANY, THE YEAR
   4:hcsr04.c      ****  * All Rights Reserved
   5:hcsr04.c      ****  * UNPUBLISHED, LICENSED SOFTWARE.
   6:hcsr04.c      ****  *
   7:hcsr04.c      ****  * CONFIDENTIAL AND PROPRIETARY INFORMATION
   8:hcsr04.c      ****  * WHICH IS THE PROPERTY OF your company.
   9:hcsr04.c      ****  *
  10:hcsr04.c      ****  * ========================================
  11:hcsr04.c      **** */
  12:hcsr04.c      **** #include "project.h"
  13:hcsr04.c      **** #include <stdio.h>
  14:hcsr04.c      **** #include <stdlib.h>
  15:hcsr04.c      **** 
  16:hcsr04.c      **** int distance;
  17:hcsr04.c      **** static char outputBuffer[256];
  18:hcsr04.c      **** CY_ISR_PROTO(Timer_int_Handler);
  19:hcsr04.c      **** 
  20:hcsr04.c      **** 
  21:hcsr04.c      **** void initDistSens()
  22:hcsr04.c      **** {
  28              		.loc 1 22 0
  29              		.cfi_startproc
  30              		@ args = 0, pretend = 0, frame = 0
  31              		@ frame_needed = 0, uses_anonymous_args = 0
  32 0000 08B5     		push	{r3, lr}
  33              		.cfi_def_cfa_offset 8
  34              		.cfi_offset 3, -8
  35              		.cfi_offset 14, -4
ARM GAS  C:\Users\Henry\AppData\Local\Temp\ccWk4oba.s 			page 2


  23:hcsr04.c      ****     PWM_Trigger_Start();
  36              		.loc 1 23 0
  37 0002 FFF7FEFF 		bl	PWM_Trigger_Start
  38              	.LVL0:
  24:hcsr04.c      ****     UART_1_Start();
  39              		.loc 1 24 0
  40 0006 FFF7FEFF 		bl	UART_1_Start
  41              	.LVL1:
  25:hcsr04.c      ****     Timer_Start();
  42              		.loc 1 25 0
  43 000a FFF7FEFF 		bl	Timer_Start
  44              	.LVL2:
  26:hcsr04.c      ****     Timer_int_StartEx(Timer_int_Handler);
  45              		.loc 1 26 0
  46 000e 0248     		ldr	r0, .L3
  47 0010 FFF7FEFF 		bl	Timer_int_StartEx
  48              	.LVL3:
  49 0014 08BD     		pop	{r3, pc}
  50              	.L4:
  51 0016 00BF     		.align	2
  52              	.L3:
  53 0018 00000000 		.word	Timer_int_Handler
  54              		.cfi_endproc
  55              	.LFE64:
  56              		.size	initDistSens, .-initDistSens
  57              		.global	__aeabi_i2d
  58              		.global	__aeabi_dmul
  59              		.global	__aeabi_d2iz
  60              		.section	.text.calcDist,"ax",%progbits
  61              		.align	2
  62              		.global	calcDist
  63              		.thumb
  64              		.thumb_func
  65              		.type	calcDist, %function
  66              	calcDist:
  67              	.LFB65:
  27:hcsr04.c      **** }
  28:hcsr04.c      **** 
  29:hcsr04.c      **** int calcDist()
  30:hcsr04.c      **** {
  68              		.loc 1 30 0
  69              		.cfi_startproc
  70              		@ args = 0, pretend = 0, frame = 0
  71              		@ frame_needed = 0, uses_anonymous_args = 0
  72 0000 08B5     		push	{r3, lr}
  73              		.cfi_def_cfa_offset 8
  74              		.cfi_offset 3, -8
  75              		.cfi_offset 14, -4
  31:hcsr04.c      ****     int capture = Timer_ReadCapture();
  76              		.loc 1 31 0
  77 0002 FFF7FEFF 		bl	Timer_ReadCapture
  78              	.LVL4:
  32:hcsr04.c      ****     //snprintf(outputBuffer, sizeof(outputBuffer), "Counter: %d \r\n", capture);
  33:hcsr04.c      ****     //UART_1_PutString(outputBuffer);
  34:hcsr04.c      ****     
  35:hcsr04.c      ****     distance = (65535 - capture) * 0.017;
  79              		.loc 1 35 0
ARM GAS  C:\Users\Henry\AppData\Local\Temp\ccWk4oba.s 			page 3


  80 0006 C0F57F40 		rsb	r0, r0, #65280
  81              	.LVL5:
  82 000a FF30     		adds	r0, r0, #255
  83 000c FFF7FEFF 		bl	__aeabi_i2d
  84              	.LVL6:
  85 0010 05A3     		adr	r3, .L7
  86 0012 D3E90023 		ldrd	r2, [r3]
  87 0016 FFF7FEFF 		bl	__aeabi_dmul
  88              	.LVL7:
  89 001a FFF7FEFF 		bl	__aeabi_d2iz
  90              	.LVL8:
  91 001e 044B     		ldr	r3, .L7+8
  92 0020 1860     		str	r0, [r3]
  36:hcsr04.c      ****     /*if(capture > 65250 && capture < 65340)
  37:hcsr04.c      ****     {
  38:hcsr04.c      ****         distance = 500;
  39:hcsr04.c      ****     }*/
  40:hcsr04.c      ****     return distance;
  41:hcsr04.c      **** }
  93              		.loc 1 41 0
  94 0022 08BD     		pop	{r3, pc}
  95              	.L8:
  96 0024 AFF30080 		.align	3
  97              	.L7:
  98 0028 9CC420B0 		.word	-1340029796
  99 002c 7268913F 		.word	1066494066
 100 0030 00000000 		.word	distance
 101              		.cfi_endproc
 102              	.LFE65:
 103              		.size	calcDist, .-calcDist
 104              		.section	.text.getDistance,"ax",%progbits
 105              		.align	2
 106              		.global	getDistance
 107              		.thumb
 108              		.thumb_func
 109              		.type	getDistance, %function
 110              	getDistance:
 111              	.LFB66:
  42:hcsr04.c      **** 
  43:hcsr04.c      **** int getDistance()
  44:hcsr04.c      **** {
 112              		.loc 1 44 0
 113              		.cfi_startproc
 114              		@ args = 0, pretend = 0, frame = 0
 115              		@ frame_needed = 0, uses_anonymous_args = 0
 116              		@ link register save eliminated.
  45:hcsr04.c      ****     return distance;
  46:hcsr04.c      **** }
 117              		.loc 1 46 0
 118 0000 014B     		ldr	r3, .L10
 119 0002 1868     		ldr	r0, [r3]
 120 0004 7047     		bx	lr
 121              	.L11:
 122 0006 00BF     		.align	2
 123              	.L10:
 124 0008 00000000 		.word	distance
 125              		.cfi_endproc
ARM GAS  C:\Users\Henry\AppData\Local\Temp\ccWk4oba.s 			page 4


 126              	.LFE66:
 127              		.size	getDistance, .-getDistance
 128              		.section	.text.outputDistanceToUART,"ax",%progbits
 129              		.align	2
 130              		.global	outputDistanceToUART
 131              		.thumb
 132              		.thumb_func
 133              		.type	outputDistanceToUART, %function
 134              	outputDistanceToUART:
 135              	.LFB67:
  47:hcsr04.c      **** 
  48:hcsr04.c      **** int outputDistanceToUART(int distance)
  49:hcsr04.c      **** {
 136              		.loc 1 49 0
 137              		.cfi_startproc
 138              		@ args = 0, pretend = 0, frame = 0
 139              		@ frame_needed = 0, uses_anonymous_args = 0
 140              	.LVL9:
 141 0000 38B5     		push	{r3, r4, r5, lr}
 142              		.cfi_def_cfa_offset 16
 143              		.cfi_offset 3, -16
 144              		.cfi_offset 4, -12
 145              		.cfi_offset 5, -8
 146              		.cfi_offset 14, -4
 147 0002 0446     		mov	r4, r0
  50:hcsr04.c      ****     snprintf(outputBuffer, sizeof(outputBuffer), "Distance: %d cm \r\n", distance);
 148              		.loc 1 50 0
 149 0004 064D     		ldr	r5, .L14
 150 0006 0346     		mov	r3, r0
 151 0008 064A     		ldr	r2, .L14+4
 152 000a 4FF48071 		mov	r1, #256
 153 000e 2846     		mov	r0, r5
 154              	.LVL10:
 155 0010 FFF7FEFF 		bl	snprintf
 156              	.LVL11:
  51:hcsr04.c      ****     UART_1_PutString(outputBuffer);
 157              		.loc 1 51 0
 158 0014 2846     		mov	r0, r5
 159 0016 FFF7FEFF 		bl	UART_1_PutString
 160              	.LVL12:
  52:hcsr04.c      ****     return distance;
  53:hcsr04.c      **** }
 161              		.loc 1 53 0
 162 001a 2046     		mov	r0, r4
 163 001c 38BD     		pop	{r3, r4, r5, pc}
 164              	.LVL13:
 165              	.L15:
 166 001e 00BF     		.align	2
 167              	.L14:
 168 0020 00000000 		.word	.LANCHOR0
 169 0024 00000000 		.word	.LC0
 170              		.cfi_endproc
 171              	.LFE67:
 172              		.size	outputDistanceToUART, .-outputDistanceToUART
 173              		.section	.text.Timer_int_Handler,"ax",%progbits
 174              		.align	2
 175              		.global	Timer_int_Handler
ARM GAS  C:\Users\Henry\AppData\Local\Temp\ccWk4oba.s 			page 5


 176              		.thumb
 177              		.thumb_func
 178              		.type	Timer_int_Handler, %function
 179              	Timer_int_Handler:
 180              	.LFB68:
  54:hcsr04.c      **** 
  55:hcsr04.c      **** 
  56:hcsr04.c      **** CY_ISR(Timer_int_Handler)
  57:hcsr04.c      **** {
 181              		.loc 1 57 0
 182              		.cfi_startproc
 183              		@ args = 0, pretend = 0, frame = 0
 184              		@ frame_needed = 0, uses_anonymous_args = 0
 185 0000 08B5     		push	{r3, lr}
 186              		.cfi_def_cfa_offset 8
 187              		.cfi_offset 3, -8
 188              		.cfi_offset 14, -4
  58:hcsr04.c      ****     distance = outputDistanceToUART(calcDist());
 189              		.loc 1 58 0
 190 0002 FFF7FEFF 		bl	calcDist
 191              	.LVL14:
 192 0006 FFF7FEFF 		bl	outputDistanceToUART
 193              	.LVL15:
 194 000a 024B     		ldr	r3, .L18
 195 000c 1860     		str	r0, [r3]
  59:hcsr04.c      ****     Timer_ClearFIFO();
 196              		.loc 1 59 0
 197 000e FFF7FEFF 		bl	Timer_ClearFIFO
 198              	.LVL16:
 199 0012 08BD     		pop	{r3, pc}
 200              	.L19:
 201              		.align	2
 202              	.L18:
 203 0014 00000000 		.word	distance
 204              		.cfi_endproc
 205              	.LFE68:
 206              		.size	Timer_int_Handler, .-Timer_int_Handler
 207              		.comm	distance,4,4
 208              		.section	.rodata.str1.4,"aMS",%progbits,1
 209              		.align	2
 210              	.LC0:
 211 0000 44697374 		.ascii	"Distance: %d cm \015\012\000"
 211      616E6365 
 211      3A202564 
 211      20636D20 
 211      0D0A00
 212              		.bss
 213              		.align	2
 214              		.set	.LANCHOR0,. + 0
 215              		.type	outputBuffer, %object
 216              		.size	outputBuffer, 256
 217              	outputBuffer:
 218 0000 00000000 		.space	256
 218      00000000 
 218      00000000 
 218      00000000 
 218      00000000 
ARM GAS  C:\Users\Henry\AppData\Local\Temp\ccWk4oba.s 			page 6


 219              		.text
 220              	.Letext0:
 221              		.file 2 "c:\\program files (x86)\\cypress\\psoc creator\\4.3\\psoc creator\\import\\gnu\\arm\\5.4.
 222              		.file 3 "c:\\program files (x86)\\cypress\\psoc creator\\4.3\\psoc creator\\import\\gnu\\arm\\5.4.
 223              		.file 4 "Generated_Source\\PSoC5/core_cm3.h"
 224              		.file 5 "Generated_Source\\PSoC5/PWM_Trigger.h"
 225              		.file 6 "Generated_Source\\PSoC5/UART_1.h"
 226              		.file 7 "Generated_Source\\PSoC5/Timer.h"
 227              		.file 8 "Generated_Source\\PSoC5/Timer_int.h"
 228              		.file 9 "c:\\program files (x86)\\cypress\\psoc creator\\4.3\\psoc creator\\import\\gnu\\arm\\5.4.